(dp0
S'Canada'
p1
(dp2
I1985
I25942
sI2050
I41136
sI1955
I16051
sI2020
I36388
sI1990
I27791
sI1960
I18267
sI2025
I37559
sI1995
I29691
sI1965
I20072
sI2030
I38565
sI2000
I31100
sI1970
I21750
sI2035
I39396
sI2005
I32387
sI1975
I23210
sI2040
I40071
sI2010
I33760
sI1980
I24594
sI2045
I40636
sI1950
I14012
sI2015
I35100
ssS'East Timor'
p3
(dp4
I1985
I649
sI2050
I2192
sI1955
I473
sI2020
I1384
sI1990
I740
sI1960
I509
sI2025
I1540
sI1995
I868
sI1965
I554
sI2030
I1690
sI2000
I768
sI1970
I598
sI2035
I1829
sI2005
I985
sI1975
I677
sI2040
I1958
sI2010
I1088
sI1980
I558
sI2045
I2079
sI1950
I436
sI2015
I1232
ssS'Guinea-Bissau'
p5
(dp6
I1985
I886
sI2050
I2895
sI1955
I592
sI2020
I1893
sI1990
I996
sI1960
I617
sI2025
I2062
sI1995
I1144
sI1965
I604
sI2030
I2231
sI2000
I1279
sI1970
I621
sI2035
I2400
sI2005
I1415
sI1975
I681
sI2040
I2568
sI2010
I1566
sI1980
I789
sI2045
I2733
sI1950
I574
sI2015
I1727
ssS'Lithuania'
p7
(dp8
I1985
I3588
sI2050
I1802
sI1955
I2615
sI2020
I2732
sI1990
I3684
sI1960
I2765
sI2025
I2574
sI1995
I3510
sI1965
I2960
sI2030
I2413
sI2000
I3490
sI1970
I3138
sI2035
I2253
sI2005
I3327
sI1975
I3306
sI2040
I2099
sI2010
I3089
sI1980
I3436
sI2045
I1949
sI1950
I2554
sI2015
I2885
ssS'Cambodia'
p9
(dp10
I1985
I7842
sI2050
I22339
sI1955
I5049
sI2020
I16927
sI1990
I9368
sI1960
I5762
sI2025
I18038
sI1995
I11235
sI1965
I6602
sI2030
I19031
sI2000
I12352
sI1970
I7395
sI2035
I19945
sI2005
I13298
sI1975
I7500
sI2040
I20810
sI2010
I14454
sI1980
I6889
sI2045
I21618
sI1950
I4472
sI2015
I15709
ssS'Saint Helena, Ascension and Tristan da Cunha'
p11
(dp12
I1985
I8
sI2050
I8
sI1955
I6
sI2020
I8
sI1990
I7
sI1960
I6
sI2025
I8
sI1995
I7
sI1965
I6
sI2030
I8
sI2000
I8
sI1970
I6
sI2035
I8
sI2005
I8
sI1975
I7
sI2040
I8
sI2010
I8
sI1980
I7
sI2045
I8
sI1950
I6
sI2015
I8
ssS'Ethiopia'
p13
(dp14
I1985
I40684
sI2050
I228067
sI1955
I21991
sI2020
I114641
sI1990
I47555
sI1960
I24169
sI2025
I131261
sI1995
I55726
sI1965
I26741
sI2030
I149123
sI2000
I64366
sI1970
I29469
sI2035
I168007
sI2005
I74355
sI1975
I32976
sI2040
I187611
sI2010
I86043
sI1980
I36037
sI2045
I207685
sI1950
I20175
sI2015
I99466
ssS'The Gambia'
p15
(dp16
I1985
I773
sI2050
I3211
sI1955
I307
sI2020
I2174
sI1990
I952
sI1960
I352
sI2025
I2370
sI1995
I1162
sI1965
I412
sI2030
I2555
sI2000
I1357
sI1970
I485
sI2035
I2731
sI2005
I1548
sI1975
I566
sI2040
I2900
sI2010
I1756
sI1980
I653
sI2045
I3060
sI1950
I272
sI2015
I1968
ssS'Aruba'
p17
(dp18
I1985
I62
sI2050
I151
sI1955
I54
sI2020
I120
sI1990
I64
sI1960
I58
sI2025
I127
sI1995
I80
sI1965
I60
sI2030
I133
sI2000
I90
sI1970
I60
sI2035
I138
sI2005
I97
sI1975
I60
sI2040
I143
sI2010
I105
sI1980
I60
sI2045
I147
sI1950
I50
sI2015
I113
ssS'Swaziland'
p19
(dp20
I1985
I722
sI2050
I1835
sI1955
I312
sI2020
I1514
sI1990
I882
sI1960
I352
sI2025
I1586
sI1995
I1004
sI1965
I400
sI2030
I1651
sI2000
I1144
sI1970
I456
sI2035
I1708
sI2005
I1259
sI1975
I521
sI2040
I1757
sI2010
I1355
sI1980
I612
sI2045
I1798
sI1950
I278
sI2015
I1436
ssS'Argentina'
p21
(dp22
I1985
I30672
sI2050
I53512
sI1955
I18928
sI2020
I45379
sI1990
I33036
sI1960
I20617
sI2025
I47165
sI1995
I35274
sI1965
I22284
sI2030
I48796
sI2000
I37336
sI1970
I23963
sI2035
I50273
sI2005
I39182
sI1975
I26082
sI2040
I51574
sI2010
I41344
sI1980
I28370
sI2045
I52663
sI1950
I17151
sI2015
I43432
ssS'Bolivia'
p23
(dp24
I1985
I5935
sI2050
I16004
sI1955
I3075
sI2020
I11640
sI1990
I6574
sI1960
I3435
sI2025
I12464
sI1995
I7375
sI1965
I3854
sI2030
I13263
sI2000
I8196
sI1970
I4347
sI2035
I14025
sI2005
I9073
sI1975
I4915
sI2040
I14740
sI2010
I9948
sI1980
I5442
sI2045
I15401
sI1950
I2767
sI2015
I10801
ssS'Cameroon'
p25
(dp26
I1985
I10227
sI2050
I51913
sI1955
I5211
sI2020
I26970
sI1990
I11984
sI1960
I5609
sI2025
I30509
sI1995
I13828
sI1965
I6104
sI2030
I34353
sI2000
I15818
sI1970
I6727
sI2035
I38465
sI2005
I18132
sI1975
I7522
sI2040
I42797
sI2010
I20823
sI1980
I8756
sI2045
I47292
sI1950
I4888
sI2015
I23740
ssS'Burkina Faso'
p27
(dp28
I1985
I7171
sI2050
I47430
sI1955
I4615
sI2020
I21978
sI1990
I8362
sI1960
I4866
sI2025
I25385
sI1995
I9903
sI1965
I5032
sI2030
I29154
sI2000
I11588
sI1970
I5304
sI2035
I33271
sI2005
I13904
sI1975
I5674
sI2040
I37715
sI2010
I16242
sI1980
I6319
sI2045
I42448
sI1950
I4377
sI2015
I18932
ssS'Turkmenistan'
p29
(dp30
I1985
I3241
sI2050
I6608
sI1955
I1348
sI2020
I5529
sI1990
I3659
sI1960
I1585
sI2025
I5801
sI1995
I4079
sI1965
I1883
sI2030
I6027
sI2000
I4386
sI1970
I2182
sI2035
I6210
sI2005
I4665
sI1975
I2524
sI2040
I6364
sI2010
I4941
sI1980
I2876
sI2045
I6498
sI1950
I1205
sI2015
I5232
ssS'Ghana'
p31
(dp32
I1985
I13573
sI2050
I52416
sI1955
I6049
sI2020
I29341
sI1990
I15549
sI1960
I6959
sI2025
I32611
sI1995
I17322
sI1965
I8010
sI2030
I36120
sI2000
I18982
sI1970
I8789
sI2035
I39872
sI2005
I21107
sI1975
I10100
sI2040
I43862
sI2010
I23572
sI1980
I11153
sI2045
I48058
sI1950
I5298
sI2015
I26328
ssS'Saudi Arabia'
p33
(dp34
I1985
I13331
sI2050
I46817
sI1955
I4244
sI2020
I32574
sI1990
I16061
sI1960
I4719
sI2025
I35179
sI1995
I18756
sI1965
I5328
sI2030
I37785
sI2000
I21312
sI1970
I6110
sI2035
I40286
sI2005
I24455
sI1975
I7208
sI2040
I42636
sI2010
I27400
sI1980
I10022
sI2045
I44744
sI1950
I3860
sI2015
I29971
ssS'Japan'
p35
(dp36
I1985
I120755
sI2050
I107210
sI1955
I89816
sI2020
I125508
sI1990
I123538
sI1960
I94092
sI2025
I123386
sI1995
I125328
sI1965
I98883
sI2030
I120752
sI2000
I126776
sI1970
I104345
sI2035
I117747
sI2005
I127716
sI1975
I111574
sI2040
I114449
sI2010
I127580
sI1980
I116808
sI2045
I110907
sI1950
I83806
sI2015
I126920
ssS'Cape Verde'
p37
(dp38
I1985
I317
sI2050
I742
sI1955
I170
sI2020
I584
sI1990
I340
sI1960
I197
sI2025
I620
sI1995
I386
sI1965
I232
sI2030
I652
sI2000
I431
sI1970
I269
sI2035
I681
sI2005
I471
sI1975
I281
sI2040
I705
sI2010
I509
sI1980
I297
sI2045
I726
sI1950
I147
sI2015
I546
ssS'Northern Mariana Islands'
p39
(dp40
I1985
I22
sI2050
I78
sI1955
I8
sI2020
I58
sI1990
I45
sI1960
I9
sI2025
I62
sI1995
I58
sI1965
I11
sI2030
I66
sI2000
I70
sI1970
I13
sI2035
I70
sI2005
I71
sI1975
I15
sI2040
I73
sI2010
I54
sI1980
I17
sI2045
I76
sI1950
I7
sI2015
I53
ssS'Slovenia'
p41
(dp42
I1985
I1915
sI2050
I1597
sI1955
I1518
sI2020
I1952
sI1990
I1992
sI1960
I1558
sI2025
I1908
sI1995
I2003
sI1965
I1621
sI2030
I1856
sI2000
I2011
sI1970
I1676
sI2035
I1798
sI2005
I2012
sI1975
I1723
sI2040
I1736
sI2010
I2004
sI1980
I1834
sI2045
I1669
sI1950
I1468
sI2015
I1984
ssS'Guatemala'
p43
(dp44
I1985
I7581
sI2050
I22996
sI1955
I3488
sI2020
I16265
sI1990
I8966
sI1960
I4100
sI2025
I17565
sI1995
I10028
sI1965
I4746
sI2030
I18798
sI2000
I11086
sI1970
I5265
sI2035
I19960
sI2005
I12183
sI1975
I5911
sI2040
I21049
sI2010
I13551
sI1980
I6650
sI2045
I22062
sI1950
I2969
sI2015
I14919
ssS'Bosnia and Herzegovina'
p45
(dp46
I1985
I4227
sI2050
I3217
sI1955
I2975
sI2020
I3836
sI1990
I4315
sI1960
I3241
sI2025
I3788
sI1995
I3547
sI1965
I3494
sI2030
I3717
sI2000
I3806
sI1970
I3704
sI2035
I3619
sI2005
I3894
sI1975
I3981
sI2040
I3498
sI2010
I3885
sI1980
I4093
sI2045
I3362
sI1950
I2663
sI2015
I3868
ssS'Guinea'
p47
(dp48
I1985
I5227
sI2050
I26408
sI1955
I2787
sI2020
I13420
sI1990
I6119
sI1960
I3027
sI2025
I15241
sI1995
I7446
sI1965
I3314
sI2030
I17226
sI2000
I8351
sI1970
I3644
sI2035
I19354
sI2005
I9154
sI1975
I4019
sI2040
I21609
sI2010
I10325
sI1980
I4448
sI2045
I23966
sI1950
I2586
sI2015
I11781
ssS'Jordan'
p49
(dp50
I1985
I2669
sI2050
I11412
sI1955
I689
sI2020
I7690
sI1990
I3321
sI1960
I853
sI2025
I8321
sI1995
I4249
sI1965
I1069
sI2030
I8989
sI2000
I4786
sI1970
I1516
sI2035
I9638
sI2005
I5363
sI1975
I1822
sI2040
I10263
sI2010
I6501
sI1980
I2190
sI2045
I10857
sI1950
I562
sI2015
I8118
ssS'Collectivity of Saint Martin'
p51
(dp52
I1985
I16
sI2050
I35
sI1955
I4
sI2020
I33
sI1990
I31
sI1960
I5
sI2025
I34
sI1995
I33
sI1965
I5
sI2030
I34
sI2000
I29
sI1970
I6
sI2035
I34
sI2005
I28
sI1975
I7
sI2040
I35
sI2010
I31
sI1980
I8
sI2045
I35
sI1950
I3
sI2015
I32
ssS'Dominica'
p53
(dp54
I1985
I74
sI2050
I65
sI1955
I57
sI2020
I75
sI1990
I71
sI1960
I60
sI2025
I75
sI1995
I72
sI1965
I64
sI2030
I74
sI2000
I71
sI1970
I70
sI2035
I73
sI2005
I73
sI1975
I74
sI2040
I71
sI2010
I73
sI1980
I74
sI2045
I68
sI1950
I52
sI2015
I74
ssS'Liberia'
p55
(dp56
I1985
I2162
sI2050
I8193
sI1955
I929
sI2020
I4728
sI1990
I2139
sI1960
I1055
sI2025
I5284
sI1995
I1901
sI1965
I1209
sI2030
I5862
sI2000
I2601
sI1970
I1397
sI2035
I6452
sI2005
I2931
sI1975
I1617
sI2040
I7043
sI2010
I3686
sI1980
I1858
sI2045
I7625
sI1950
I824
sI2015
I4196
ssS'Maldives'
p57
(dp58
I1985
I178
sI2050
I445
sI1955
I81
sI2020
I392
sI1990
I217
sI1960
I93
sI2025
I389
sI1995
I261
sI1965
I98
sI2030
I402
sI2000
I300
sI1970
I115
sI2035
I416
sI2005
I337
sI1975
I133
sI2040
I427
sI2010
I396
sI1980
I153
sI2045
I437
sI1950
I80
sI2015
I394
ssS'Pakistan'
p59
(dp60
I1985
I102079
sI2050
I300848
sI1955
I45536
sI2020
I223720
sI1990
I118817
sI1960
I51719
sI2025
I238386
sI1995
I134186
sI1965
I59047
sI2030
I252862
sI2000
I152430
sI1970
I67492
sI2035
I266594
sI2005
I169279
sI1975
I76457
sI2040
I279152
sI2010
I184405
sI1980
I85220
sI2045
I290553
sI1950
I40383
sI2015
I199086
ssS'Oman'
p61
(dp62
I1985
I1498
sI2050
I5402
sI1955
I540
sI2020
I3635
sI1990
I1795
sI1960
I602
sI2025
I3982
sI1995
I2139
sI1965
I682
sI2030
I4305
sI2000
I2433
sI1970
I784
sI2035
I4601
sI2005
I2697
sI1975
I921
sI2040
I4880
sI2010
I2968
sI1980
I1186
sI2045
I5147
sI1950
I489
sI2015
I3287
ssS'Tanzania'
p63
(dp64
I1985
I21485
sI2050
I118587
sI1955
I8971
sI2020
I58553
sI1990
I24805
sI1960
I10260
sI2025
I66905
sI1995
I29065
sI1965
I11871
sI2030
I76071
sI2000
I33194
sI1970
I13807
sI2035
I85946
sI2005
I38487
sI1975
I16148
sI2040
I96400
sI2010
I44289
sI1980
I18654
sI2045
I107301
sI1950
I7935
sI2015
I51046
ssS'S\xc3\xa3o Tom\xc3\xa9 and Pr\xc3\xadncipe'
p65
(dp66
I1985
I105
sI2050
I310
sI1955
I61
sI2020
I212
sI1990
I116
sI1960
I64
sI2025
I228
sI1995
I128
sI1965
I69
sI2030
I244
sI2000
I141
sI1970
I74
sI2035
I260
sI2005
I158
sI1975
I82
sI2040
I277
sI2010
I176
sI1980
I95
sI2045
I294
sI1950
I60
sI2015
I195
ssS'Zambia'
p67
(dp68
I1985
I6536
sI2050
I38993
sI1955
I2870
sI2020
I17427
sI1990
I7604
sI1960
I3255
sI2025
I20105
sI1995
I8691
sI1965
I3695
sI2030
I23137
sI2000
I9984
sI1970
I4241
sI2035
I26546
sI2005
I11373
sI1975
I4849
sI2040
I30339
sI2010
I13042
sI1980
I5541
sI2045
I34497
sI1950
I2554
sI2015
I15067
ssS'United States Virgin Islands'
p69
(dp70
I1985
I101
sI2050
I69
sI1955
I28
sI2020
I101
sI1990
I104
sI1960
I33
sI2025
I96
sI1995
I108
sI1965
I44
sI2030
I91
sI2000
I109
sI1970
I64
sI2035
I86
sI2005
I108
sI1975
I95
sI2040
I80
sI2010
I107
sI1980
I100
sI2045
I75
sI1950
I27
sI2015
I104
ssS'Greenland'
p71
(dp72
I1985
I54
sI2050
I50
sI1955
I27
sI2020
I58
sI1990
I56
sI1960
I33
sI2025
I58
sI1995
I57
sI1965
I40
sI2030
I57
sI2000
I57
sI1970
I47
sI2035
I55
sI2005
I58
sI1975
I50
sI2040
I54
sI2010
I58
sI1980
I51
sI2045
I52
sI1950
I23
sI2015
I58
ssS'Gabon'
p73
(dp74
I1985
I834
sI2050
I3230
sI1955
I429
sI2020
I1877
sI1990
I939
sI1960
I447
sI2025
I2064
sI1995
I1070
sI1965
I475
sI2030
I2267
sI2000
I1237
sI1970
I515
sI2035
I2484
sI2005
I1396
sI1975
I648
sI2040
I2717
sI2010
I1546
sI1980
I714
sI2045
I2965
sI1950
I416
sI2015
I1706
ssS'Saint Pierre and Miquelon'
p75
(dp76
I1985
I7
sI2050
I4
sI1955
I5
sI2020
I6
sI1990
I7
sI1960
I5
sI2025
I6
sI1995
I7
sI1965
I6
sI2030
I5
sI2000
I7
sI1970
I6
sI2035
I5
sI2005
I7
sI1975
I6
sI2040
I5
sI2010
I6
sI1980
I6
sI2045
I4
sI1950
I5
sI2015
I6
ssS'Monaco'
p77
(dp78
I1985
I29
sI2050
I30
sI1955
I19
sI2020
I31
sI1990
I30
sI1960
I21
sI2025
I32
sI1995
I31
sI1965
I23
sI2030
I33
sI2000
I32
sI1970
I24
sI2035
I33
sI2005
I32
sI1975
I26
sI2040
I33
sI2010
I31
sI1980
I27
sI2045
I32
sI1950
I19
sI2015
I31
ssS'Wallis and Futuna'
p79
(dp80
I1985
I14
sI2050
I16
sI1955
I8
sI2020
I16
sI1990
I14
sI1960
I8
sI2025
I17
sI1995
I15
sI1965
I9
sI2030
I17
sI2000
I15
sI1970
I9
sI2035
I17
sI2005
I16
sI1975
I9
sI2040
I16
sI2010
I16
sI1980
I11
sI2045
I16
sI1950
I7
sI2015
I16
ssS'New Zealand'
p81
(dp82
I1985
I3324
sI2050
I5199
sI1955
I2137
sI2020
I4615
sI1990
I3414
sI1960
I2372
sI2025
I4776
sI1995
I3643
sI1965
I2641
sI2030
I4914
sI2000
I3803
sI1970
I2829
sI2035
I5023
sI2005
I4049
sI1975
I3118
sI2040
I5106
sI2010
I4253
sI1980
I3171
sI2045
I5164
sI1950
I1909
sI2015
I4439
ssS'Yemen'
p83
(dp84
I1985
I10540
sI2050
I46081
sI1955
I5266
sI2020
I29885
sI1990
I12417
sI1960
I5872
sI2025
I32823
sI1995
I14832
sI1965
I6511
sI2030
I35660
sI2000
I17236
sI1970
I7099
sI2035
I38437
sI2005
I20003
sI1975
I7935
sI2040
I41142
sI2010
I23210
sI1980
I9133
sI2045
I43710
sI1950
I4778
sI2015
I26738
ssS'Jersey'
p85
(dp86
I1985
I80
sI2050
I108
sI1955
I60
sI2020
I102
sI1990
I84
sI1960
I63
sI2025
I105
sI1995
I85
sI1965
I67
sI2030
I107
sI2000
I88
sI1970
I70
sI2035
I108
sI2005
I89
sI1975
I73
sI2040
I108
sI2010
I94
sI1980
I76
sI2045
I108
sI1950
I57
sI2015
I98
ssS'Jamaica'
p87
(dp88
I1985
I2319
sI2050
I3555
sI1955
I1489
sI2020
I3052
sI1990
I2348
sI1960
I1632
sI2025
I3152
sI1995
I2470
sI1965
I1778
sI2030
I3246
sI2000
I2616
sI1970
I1944
sI2035
I3332
sI2005
I2737
sI1975
I2105
sI2040
I3411
sI2010
I2848
sI1980
I2229
sI2045
I3484
sI1950
I1385
sI2015
I2951
ssS'Albania'
p89
(dp90
I1985
I2957
sI2050
I2825
sI1955
I1393
sI2020
I3075
sI1990
I3245
sI1960
I1624
sI2025
I3105
sI1995
I3159
sI1965
I1884
sI2030
I3103
sI2000
I3159
sI1970
I2157
sI2035
I3063
sI2005
I3025
sI1975
I2402
sI2040
I2994
sI2010
I2987
sI1980
I2672
sI2045
I2913
sI1950
I1228
sI2015
I3030
ssS'Samoa'
p91
(dp92
I1985
I161
sI2050
I246
sI1955
I94
sI2020
I204
sI1990
I163
sI1960
I111
sI2025
I211
sI1995
I169
sI1965
I128
sI2030
I218
sI2000
I177
sI1970
I143
sI2035
I225
sI2005
I185
sI1975
I151
sI2040
I232
sI2010
I193
sI1980
I160
sI2045
I239
sI1950
I82
sI2015
I198
ssS'Macau'
p93
(dp94
I1985
I306
sI2050
I621
sI1955
I193
sI2020
I615
sI1990
I352
sI1960
I187
sI2025
I631
sI1995
I402
sI1965
I224
sI2030
I640
sI2000
I432
sI1970
I262
sI2035
I644
sI2005
I475
sI1975
I255
sI2040
I642
sI2010
I568
sI1980
I256
sI2045
I634
sI1950
I206
sI2015
I593
ssS'Nicaragua'
p95
(dp96
I1985
I3181
sI2050
I7234
sI1955
I1278
sI2020
I6204
sI1990
I3644
sI1960
I1493
sI2025
I6494
sI1995
I4402
sI1965
I1751
sI2030
I6754
sI2000
I4867
sI1970
I2053
sI2035
I6957
sI2005
I5268
sI1975
I2395
sI2040
I7101
sI2010
I5605
sI1980
I2804
sI2045
I7192
sI1950
I1098
sI2015
I5908
ssS'United Arab Emirates'
p97
(dp98
I1985
I1364
sI2050
I8019
sI1955
I83
sI2020
I6496
sI1990
I1827
sI1960
I104
sI2025
I7064
sI1995
I2458
sI1965
I144
sI2030
I7484
sI2000
I3220
sI1970
I250
sI2035
I7773
sI2005
I4087
sI1975
I523
sI2040
I7949
sI2010
I4976
sI1980
I1001
sI2045
I8025
sI1950
I72
sI2015
I5780
ssS'Guam'
p99
(dp100
I1985
I121
sI2050
I202
sI1955
I69
sI2020
I169
sI1990
I135
sI1960
I67
sI2025
I177
sI1995
I145
sI1965
I75
sI2030
I185
sI2000
I156
sI1970
I87
sI2035
I191
sI2005
I159
sI1975
I103
sI2040
I196
sI2010
I160
sI1980
I107
sI2045
I199
sI1950
I60
sI2015
I162
ssS'Uruguay'
p101
(dp102
I1985
I3019
sI2050
I3496
sI1955
I2354
sI2020
I3388
sI1990
I3086
sI1960
I2531
sI2025
I3432
sI1995
I3151
sI1965
I2694
sI2030
I3467
sI2000
I3220
sI1970
I2824
sI2035
I3486
sI2005
I3265
sI1975
I2844
sI2040
I3501
sI2010
I3302
sI1980
I2931
sI2045
I3504
sI1950
I2195
sI2015
I3342
ssS'India'
p103
(dp104
I1985
I759613
sI2050
I1656554
sI1955
I404268
sI2020
I1326094
sI1990
I838159
sI1960
I445394
sI2025
I1396047
sI1995
I920585
sI1965
I494964
sI2030
I1460744
sI2000
I1006301
sI1970
I553889
sI2035
I1519491
sI2005
I1090974
sI1975
I618923
sI2040
I1571716
sI2010
I1173109
sI1980
I684888
sI2045
I1617238
sI1950
I369881
sI2015
I1251696
ssS'Azerbaijan'
p105
(dp106
I1985
I6846
sI2050
I11210
sI1955
I3314
sI2020
I10206
sI1990
I7498
sI1960
I3882
sI2025
I10534
sI1995
I8051
sI1965
I4567
sI2030
I10782
sI2000
I8464
sI1970
I5169
sI2035
I10974
sI2005
I8826
sI1975
I5697
sI2040
I11118
sI2010
I9302
sI1980
I6199
sI2045
I11201
sI1950
I2886
sI2015
I9781
ssS'Lesotho'
p107
(dp108
I1985
I1552
sI2050
I1921
sI1955
I787
sI2020
I1970
sI1990
I1704
sI1960
I859
sI2025
I1971
sI1995
I1848
sI1965
I953
sI2030
I1952
sI2000
I1917
sI1970
I1068
sI2035
I1927
sI2005
I1923
sI1975
I1196
sI2040
I1907
sI2010
I1920
sI1980
I1359
sI2045
I1905
sI1950
I727
sI2015
I1948
ssS'Saint Vincent and the Grenadines'
p109
(dp110
I1985
I104
sI2050
I94
sI1955
I76
sI2020
I102
sI1990
I108
sI1960
I82
sI2025
I101
sI1995
I109
sI1965
I86
sI2030
I100
sI2000
I108
sI1970
I88
sI2035
I99
sI2005
I107
sI1975
I93
sI2040
I97
sI2010
I105
sI1980
I99
sI2045
I96
sI1950
I67
sI2015
I103
ssS'Kenya'
p111
(dp112
I1985
I19763
sI2050
I70756
sI1955
I7034
sI2020
I49859
sI1990
I23361
sI1960
I8157
sI2025
I53197
sI1995
I27164
sI1965
I9550
sI2030
I56553
sI2000
I30606
sI1970
I11248
sI2035
I60244
sI2005
I35247
sI1975
I13434
sI2040
I64059
sI2010
I40844
sI1980
I16331
sI2045
I67608
sI1950
I6122
sI2015
I45926
ssS'South Korea'
p113
(dp114
I1985
I40807
sI2050
I43369
sI1955
I21552
sI2020
I49362
sI1990
I42870
sI1960
I24785
sI2025
I49373
sI1995
I45106
sI1965
I28706
sI2030
I49003
sI2000
I46839
sI1970
I32242
sI2035
I48173
sI2005
I48006
sI1975
I35282
sI2040
I46912
sI2010
I48637
sI1980
I38125
sI2045
I45284
sI1950
I20846
sI2015
I49116
ssS'Tajikistan'
p115
(dp116
I1985
I4569
sI2050
I12133
sI1955
I1781
sI2020
I8874
sI1990
I5273
sI1960
I2081
sI2025
I9511
sI1995
I5679
sI1965
I2511
sI2030
I10104
sI2000
I6230
sI1970
I2939
sI2035
I10668
sI2005
I6815
sI1975
I3449
sI2040
I11203
sI2010
I7488
sI1980
I3967
sI2045
I11697
sI1950
I1531
sI2015
I8192
ssS'Turkey'
p117
(dp118
I1985
I50989
sI2050
I89291
sI1955
I24145
sI2020
I82018
sI1990
I56545
sI1960
I28218
sI2025
I84545
sI1995
I61296
sI1965
I31951
sI2030
I86671
sI2000
I65970
sI1970
I35759
sI2035
I88279
sI2005
I70465
sI1975
I40530
sI2040
I89283
sI2010
I74687
sI1980
I45048
sI2045
I89626
sI1950
I21122
sI2015
I79415
ssS'Afghanistan'
p119
(dp120
I1985
I13120
sI2050
I63796
sI1955
I8892
sI2020
I36644
sI1990
I13569
sI1960
I9830
sI2025
I41118
sI1995
I19446
sI1965
I10998
sI2030
I45665
sI2000
I22462
sI1970
I12431
sI2035
I50195
sI2005
I26335
sI1975
I14133
sI2040
I54717
sI2010
I29121
sI1980
I15045
sI2045
I59256
sI1950
I8151
sI2015
I32565
ssS'Bangladesh'
p121
(dp122
I1985
I102309
sI2050
I201249
sI1955
I49589
sI2020
I169778
sI1990
I112213
sI1960
I54593
sI2025
I178312
sI1995
I121443
sI1965
I60285
sI2030
I185605
sI2000
I132151
sI1970
I67332
sI2035
I191616
sI2005
I144139
sI1975
I76153
sI2040
I196224
sI2010
I156119
sI1980
I87938
sI2045
I199442
sI1950
I45646
sI2015
I168958
ssS'Mauritania'
p123
(dp124
I1985
I1724
sI2050
I6537
sI1955
I1054
sI2020
I4006
sI1990
I1925
sI1960
I1118
sI2025
I4426
sI1995
I2235
sI1965
I1196
sI2030
I4851
sI2000
I2501
sI1970
I1290
sI2035
I5280
sI2005
I2838
sI1975
I1405
sI2040
I5707
sI2010
I3206
sI1980
I1545
sI2045
I6128
sI1950
I1006
sI2015
I3597
ssS'Solomon Islands'
p125
(dp126
I1985
I273
sI2050
I1016
sI1955
I115
sI2020
I686
sI1990
I322
sI1960
I127
sI2025
I748
sI1995
I376
sI1965
I144
sI2030
I808
sI2000
I434
sI1970
I164
sI2035
I866
sI2005
I496
sI1975
I194
sI2040
I921
sI2010
I560
sI1980
I231
sI2045
I971
sI1950
I107
sI2015
I623
ssS'Turks and Caicos Islands'
p127
(dp128
I1985
I10
sI2050
I85
sI1955
I6
sI2020
I56
sI1990
I12
sI1960
I6
sI2025
I62
sI1995
I15
sI1965
I6
sI2030
I67
sI2000
I20
sI1970
I6
sI2035
I72
sI2005
I28
sI1975
I7
sI2040
I76
sI2010
I44
sI1980
I8
sI2045
I81
sI1950
I6
sI2015
I51
ssS'Saint Lucia'
p129
(dp130
I1985
I132
sI2050
I163
sI1955
I86
sI2020
I167
sI1990
I138
sI1960
I88
sI2025
I169
sI1995
I147
sI1965
I95
sI2030
I170
sI2000
I154
sI1970
I103
sI2035
I170
sI2005
I158
sI1975
I113
sI2040
I169
sI2010
I161
sI1980
I123
sI2045
I167
sI1950
I80
sI2015
I164
ssS'San Marino'
p131
(dp132
I1985
I23
sI2050
I36
sI1955
I14
sI2020
I35
sI1990
I24
sI1960
I16
sI2025
I36
sI1995
I25
sI1965
I18
sI2030
I36
sI2000
I28
sI1970
I20
sI2035
I37
sI2005
I30
sI1975
I20
sI2040
I37
sI2010
I32
sI1980
I22
sI2045
I36
sI1950
I13
sI2015
I34
ssS'French Polynesia'
p133
(dp134
I1985
I176
sI2050
I325
sI1955
I72
sI2020
I296
sI1990
I200
sI1960
I82
sI2025
I306
sI1995
I217
sI1965
I95
sI2030
I314
sI2000
I236
sI1970
I115
sI2035
I320
sI2005
I254
sI1975
I134
sI2040
I324
sI2010
I269
sI1980
I151
sI2045
I325
sI1950
I63
sI2015
I283
ssS'France'
p135
(dp136
I1985
I56561
sI2050
I69485
sI1955
I44243
sI2020
I67849
sI1990
I58256
sI1960
I46612
sI2025
I68861
sI1995
I59824
sI1965
I49834
sI2030
I69604
sI2000
I61256
sI1970
I51955
sI2035
I70051
sI2005
I63060
sI1975
I53998
sI2040
I70154
sI2010
I64941
sI1980
I55164
sI2045
I69936
sI1950
I42540
sI2015
I66554
ssS'Bermuda'
p137
(dp138
I1985
I57
sI2050
I70
sI1955
I42
sI2020
I72
sI1990
I58
sI1960
I45
sI2025
I73
sI1995
I61
sI1965
I49
sI2030
I74
sI2000
I64
sI1970
I53
sI2035
I74
sI2005
I66
sI1975
I54
sI2040
I73
sI2010
I69
sI1980
I55
sI2045
I72
sI1950
I39
sI2015
I71
ssS'Slovakia'
p139
(dp140
I1985
I5145
sI2050
I4851
sI1955
I3727
sI2020
I5441
sI1990
I5263
sI1960
I3995
sI2025
I5406
sI1995
I5362
sI1965
I4370
sI2030
I5335
sI2000
I5401
sI1970
I4524
sI2035
I5238
sI2005
I5408
sI1975
I4730
sI2040
I5125
sI2010
I5427
sI1980
I4966
sI2045
I4997
sI1950
I3464
sI2015
I5446
ssS'Somalia'
p141
(dp142
I1985
I6459
sI2050
I22627
sI1955
I2674
sI2020
I11758
sI1990
I6693
sI1960
I2956
sI2025
I13275
sI1995
I6401
sI1965
I3283
sI2030
I15041
sI2000
I7501
sI1970
I3667
sI2035
I16883
sI2005
I8791
sI1975
I4128
sI2040
I18769
sI2010
I9768
sI1980
I5794
sI2045
I20684
sI1950
I2438
sI2015
I10617
ssS'Peru'
p143
(dp144
I1985
I19380
sI2050
I49101
sI1955
I8672
sI2020
I34210
sI1990
I21565
sI1960
I9932
sI2025
I37315
sI1995
I23864
sI1965
I11468
sI2030
I40105
sI2000
I25797
sI1970
I13193
sI2035
I42514
sI2005
I27443
sI1975
I15162
sI2040
I44356
sI2010
I28948
sI1980
I17296
sI2045
I46619
sI1950
I7633
sI2015
I30445
ssS'Laos'
p145
(dp146
I1985
I3658
sI2050
I10069
sI1955
I2078
sI2020
I7448
sI1990
I4211
sI1960
I2310
sI2025
I7972
sI1995
I4847
sI1965
I2566
sI2030
I8473
sI2000
I5398
sI1970
I2845
sI2035
I8933
sI2005
I5837
sI1975
I3162
sI2040
I9349
sI2010
I6369
sI1980
I3294
sI2045
I9727
sI1950
I1886
sI2015
I6912
ssS'Nauru'
p147
(dp148
I1985
I9
sI2050
I12
sI1955
I4
sI2020
I10
sI1990
I10
sI1960
I5
sI2025
I11
sI1995
I10
sI1965
I6
sI2030
I11
sI2000
I10
sI1970
I7
sI2035
I11
sI2005
I11
sI1975
I8
sI2040
I12
sI2010
I10
sI1980
I8
sI2045
I12
sI1950
I4
sI2015
I10
ssS'Seychelles'
p149
(dp150
I1985
I68
sI2050
I101
sI1955
I36
sI2020
I96
sI1990
I71
sI1960
I42
sI2025
I99
sI1995
I75
sI1965
I48
sI2030
I101
sI2000
I80
sI1970
I55
sI2035
I103
sI2005
I84
sI1975
I60
sI2040
I103
sI2010
I89
sI1980
I64
sI2045
I102
sI1950
I33
sI2015
I93
ssS'Norway'
p151
(dp152
I1985
I4153
sI2050
I6365
sI1955
I3428
sI2020
I5468
sI1990
I4243
sI1960
I3582
sI2025
I5683
sI1995
I4360
sI1965
I3724
sI2030
I5870
sI2000
I4493
sI1970
I3878
sI2035
I6026
sI2005
I4625
sI1975
I4008
sI2040
I6155
sI2010
I4892
sI1980
I4086
sI2045
I6267
sI1950
I3266
sI2015
I5208
ssS'Malawi'
p153
(dp154
I1985
I7321
sI2050
I51781
sI1955
I3089
sI2020
I21197
sI1990
I9360
sI1960
I3451
sI2025
I24958
sI1995
I9809
sI1965
I3915
sI2030
I29275
sI2000
I11130
sI1970
I4509
sI2035
I34155
sI2005
I12864
sI1975
I5318
sI2040
I39573
sI2010
I15183
sI1980
I6258
sI2045
I45478
sI1950
I2817
sI2015
I17965
ssS'Cook Islands'
p155
(dp156
I1985
I18
sI2050
I6
sI1955
I17
sI2020
I9
sI1990
I19
sI1960
I18
sI2025
I8
sI1995
I19
sI1965
I20
sI2030
I7
sI2000
I17
sI1970
I21
sI2035
I7
sI2005
I14
sI1975
I20
sI2040
I6
sI2010
I12
sI1980
I19
sI2045
I6
sI1950
I15
sI2015
I10
ssS'Benin'
p157
(dp158
I1985
I4031
sI2050
I22119
sI1955
I1847
sI2020
I11957
sI1990
I4706
sI1960
I2056
sI2025
I13565
sI1995
I5647
sI1965
I2311
sI2030
I15249
sI2000
I6620
sI1970
I2620
sI2035
I16971
sI2005
I7778
sI1975
I2996
sI2040
I18703
sI2010
I9057
sI1980
I3459
sI2045
I20425
sI1950
I1673
sI2015
I10449
ssS'Federated States of Micronesia'
p159
(dp160
I1985
I91
sI2050
I75
sI1955
I36
sI2020
I103
sI1990
I109
sI1960
I42
sI2025
I99
sI1995
I106
sI1965
I49
sI2030
I95
sI2000
I108
sI1970
I57
sI2035
I91
sI2005
I109
sI1975
I67
sI2040
I86
sI2010
I108
sI1980
I78
sI2045
I80
sI1950
I31
sI2015
I106
ssS'Western Sahara'
p161
(dp162
I1985
I180
sI2050
I1174
sI1955
I16
sI2020
I653
sI1990
I218
sI1960
I28
sI2025
I736
sI1995
I264
sI1965
I50
sI2030
I822
sI2000
I337
sI1970
I90
sI2035
I909
sI2005
I416
sI1975
I73
sI2040
I998
sI2010
I492
sI1980
I125
sI2045
I1086
sI1950
I10
sI2015
I571
ssS'Cuba'
p163
(dp164
I1985
I10065
sI2050
I9162
sI1955
I6382
sI2020
I10932
sI1990
I10507
sI1960
I7028
sI2025
I10785
sI1995
I10848
sI1965
I7810
sI2030
I10575
sI2000
I11072
sI1970
I8543
sI2035
I10298
sI2005
I11199
sI1975
I9291
sI2040
I9962
sI2010
I11099
sI1980
I9653
sI2045
I9579
sI1950
I5785
sI2015
I11032
ssS'Montenegro'
p165
(dp166
I1985
I561
sI2050
I578
sI1955
I432
sI2020
I640
sI1990
I584
sI1960
I462
sI2025
I636
sI1995
I671
sI1965
I492
sI2030
I629
sI2000
I733
sI1970
I515
sI2035
I621
sI2005
I700
sI1975
I550
sI2040
I610
sI2010
I667
sI1980
I561
sI2045
I596
sI1950
I396
sI2015
I648
ssS'Republic of the Congo'
p167
(dp168
I1985
I1927
sI2050
I10202
sI1955
I904
sI2020
I5294
sI1990
I2221
sI1960
I1003
sI2025
I5948
sI1995
I2570
sI1965
I1124
sI2030
I6674
sI2000
I2940
sI1970
I1273
sI2035
I7475
sI2005
I3473
sI1975
I1456
sI2040
I8343
sI2010
I4238
sI1980
I1676
sI2045
I9259
sI1950
I827
sI2015
I4756
ssS'Togo'
p169
(dp170
I1985
I3130
sI2050
I16584
sI1955
I1299
sI2020
I8609
sI1990
I3721
sI1960
I1456
sI2025
I9742
sI1995
I4203
sI1965
I1648
sI2030
I10953
sI2000
I4992
sI1970
I1965
sI2035
I12246
sI2005
I5715
sI1975
I2267
sI2040
I13622
sI2010
I6588
sI1980
I2626
sI2045
I15074
sI1950
I1172
sI2015
I7553
ssS'China'
p171
(dp172
I1985
I1061876
sI2050
I1301628
sI1955
I607047
sI2020
I1394016
sI1990
I1153164
sI1960
I651340
sI2025
I1407007
sI1995
I1221056
sI1965
I716667
sI2030
I1403894
sI2000
I1268302
sI1970
I822116
sI2035
I1388258
sI2005
I1302285
sI1975
I920295
sI2040
I1364680
sI2010
I1336681
sI1980
I987822
sI2045
I1335915
sI1950
I562580
sI2015
I1367486
ssS'Armenia'
p173
(dp174
I1985
I3465
sI2050
I2469
sI1955
I1566
sI2020
I3022
sI1990
I3530
sI1960
I1869
sI2025
I2962
sI1995
I3131
sI1965
I2206
sI2030
I2884
sI2000
I3101
sI1970
I2520
sI2035
I2796
sI2005
I3085
sI1975
I2835
sI2040
I2699
sI2010
I3072
sI1980
I3134
sI2045
I2590
sI1950
I1356
sI2015
I3057
ssS'Dominican Republic'
p175
(dp176
I1985
I6379
sI2050
I13691
sI1955
I2738
sI2020
I11110
sI1990
I7084
sI1960
I3232
sI2025
I11703
sI1995
I7759
sI1965
I3806
sI2030
I12240
sI2000
I8469
sI1970
I4423
sI2035
I12705
sI2005
I9165
sI1975
I5049
sI2040
I13097
sI2010
I9824
sI1980
I5697
sI2045
I13425
sI1950
I2353
sI2015
I10479
ssS'Ukraine'
p177
(dp178
I1985
I50945
sI2050
I37149
sI1955
I39369
sI2020
I43923
sI1990
I51623
sI1960
I42645
sI2025
I42888
sI1995
I51248
sI1965
I45235
sI2030
I41699
sI2000
I49014
sI1970
I47236
sI2035
I40538
sI2005
I47003
sI1975
I48974
sI2040
I39428
sI2010
I45769
sI1980
I50047
sI2045
I38325
sI1950
I36775
sI2015
I44430
ssS'Bahrain'
p179
(dp180
I1985
I424
sI2050
I1848
sI1955
I131
sI2020
I1506
sI1990
I506
sI1960
I157
sI2025
I1580
sI1995
I583
sI1965
I192
sI2030
I1639
sI2000
I655
sI1970
I220
sI2035
I1701
sI2005
I916
sI1975
I259
sI2040
I1759
sI2010
I1181
sI1980
I348
sI2045
I1806
sI1950
I115
sI2015
I1347
ssS'Tonga'
p181
(dp182
I1985
I95
sI2050
I79
sI1955
I55
sI2020
I107
sI1990
I97
sI1960
I64
sI2025
I105
sI1995
I98
sI1965
I75
sI2030
I103
sI2000
I101
sI1970
I84
sI2035
I99
sI2005
I104
sI1975
I90
sI2040
I94
sI2010
I106
sI1980
I92
sI2045
I88
sI1950
I46
sI2015
I107
ssS'Finland'
p183
(dp184
I1985
I4902
sI2050
I5476
sI1955
I4235
sI2020
I5572
sI1990
I4987
sI1960
I4430
sI2025
I5631
sI1995
I5105
sI1965
I4564
sI2030
I5646
sI2000
I5169
sI1970
I4607
sI2035
I5623
sI2005
I5239
sI1975
I4712
sI2040
I5580
sI2010
I5355
sI1980
I4780
sI2045
I5530
sI1950
I4009
sI2015
I5477
ssS'Libya'
p185
(dp186
I1985
I3661
sI2050
I8971
sI1955
I1123
sI2020
I6943
sI1990
I4099
sI1960
I1338
sI2025
I7375
sI1995
I4584
sI1965
I1624
sI2030
I7773
sI2000
I5025
sI1970
I2000
sI2035
I8138
sI2005
I5571
sI1975
I2569
sI2040
I8466
sI2010
I6111
sI1980
I3061
sI2045
I8747
sI1950
I962
sI2015
I6412
ssS'Cayman Islands'
p187
(dp188
I1985
I21
sI2050
I92
sI1955
I7
sI2020
I62
sI1990
I27
sI1960
I8
sI2025
I68
sI1995
I33
sI1965
I9
sI2030
I74
sI2000
I39
sI1970
I11
sI2035
I79
sI2005
I45
sI1975
I15
sI2040
I83
sI2010
I51
sI1980
I18
sI2045
I88
sI1950
I7
sI2015
I57
ssS'Central African Republic'
p189
(dp190
I1985
I2715
sI2050
I10339
sI1955
I1349
sI2020
I5991
sI1990
I3085
sI1960
I1468
sI2025
I6638
sI1995
I3545
sI1965
I1628
sI2030
I7326
sI2000
I3980
sI1970
I1840
sI2035
I8046
sI2005
I4364
sI1975
I2058
sI2040
I8792
sI2010
I4845
sI1980
I2349
sI2045
I9558
sI1950
I1260
sI2015
I5392
ssS'Mauritius'
p191
(dp192
I1985
I1021
sI2050
I1442
sI1955
I572
sI2020
I1380
sI1990
I1062
sI1960
I664
sI2025
I1413
sI1995
I1124
sI1965
I756
sI2030
I1437
sI2000
I1186
sI1970
I830
sI2035
I1452
sI2005
I1243
sI1975
I886
sI2040
I1457
sI2010
I1295
sI1980
I964
sI2045
I1453
sI1950
I482
sI2015
I1340
ssS'Liechtenstein'
p193
(dp194
I1985
I27
sI2050
I44
sI1955
I15
sI2020
I40
sI1990
I29
sI1960
I17
sI2025
I41
sI1995
I31
sI1965
I19
sI2030
I42
sI2000
I33
sI1970
I22
sI2035
I43
sI2005
I35
sI1975
I24
sI2040
I44
sI2010
I37
sI1980
I26
sI2045
I44
sI1950
I14
sI2015
I38
ssS'Australia'
p195
(dp196
I1985
I15696
sI2050
I29013
sI1955
I9278
sI2020
I23939
sI1990
I16957
sI1960
I10362
sI2025
I25054
sI1995
I17976
sI1965
I11440
sI2030
I26056
sI2000
I19054
sI1970
I12661
sI2035
I26932
sI2005
I20233
sI1975
I13772
sI2040
I27702
sI2010
I21516
sI1980
I14616
sI2045
I28390
sI1950
I8268
sI2015
I22752
ssS'British Virgin Islands'
p197
(dp198
I1985
I14
sI2050
I60
sI1955
I7
sI2020
I38
sI1990
I16
sI1960
I8
sI2025
I42
sI1995
I20
sI1965
I9
sI2030
I46
sI2000
I23
sI1970
I10
sI2035
I49
sI2005
I26
sI1975
I11
sI2040
I53
sI2010
I30
sI1980
I11
sI2045
I57
sI1950
I7
sI2015
I34
ssS'Mali'
p199
(dp200
I1985
I7623
sI2050
I38396
sI1955
I4072
sI2020
I19624
sI1990
I8487
sI1960
I4495
sI2025
I22534
sI1995
I9489
sI1965
I4978
sI2030
I25619
sI2000
I10788
sI1970
I5547
sI2035
I28805
sI2005
I12528
sI1975
I6218
sI2040
I32027
sI2010
I14583
sI1980
I6869
sI2045
I35238
sI1950
I3688
sI2015
I16956
ssS'Russia'
p201
(dp202
I1985
I143938
sI2050
I129909
sI1955
I111126
sI2020
I141723
sI1990
I147973
sI1960
I119632
sI2025
I140140
sI1995
I148759
sI1965
I126542
sI2030
I138215
sI2000
I147054
sI1970
I130246
sI2035
I136313
sI2005
I143320
sI1975
I134294
sI2040
I134496
sI2010
I142527
sI1980
I139039
sI2045
I132432
sI1950
I101937
sI2015
I142424
ssS'Bulgaria'
p203
(dp204
I1985
I8944
sI2050
I5532
sI1955
I7500
sI2020
I6967
sI1990
I8895
sI1960
I7868
sI2025
I6729
sI1995
I8285
sI1965
I8202
sI2030
I6482
sI2000
I7909
sI1970
I8490
sI2035
I6238
sI2005
I7612
sI1975
I8721
sI2040
I6001
sI2010
I7392
sI1980
I8844
sI2045
I5768
sI1950
I7251
sI2015
I7187
ssS'United States'
p205
(dp206
I1985
I237924
sI2050
I398329
sI1955
I165070
sI2020
I334504
sI1990
I249623
sI1960
I179980
sI2025
I347335
sI1995
I266279
sI1965
I193527
sI2030
I359403
sI2000
I282163
sI1970
I203985
sI2035
I370339
sI2005
I295517
sI1975
I215466
sI2040
I380220
sI2010
I309348
sI1980
I227225
sI2045
I389395
sI1950
I151869
sI2015
I321369
ssS'Romania'
p207
(dp208
I1985
I22522
sI2050
I18061
sI1955
I17326
sI2020
I21303
sI1990
I22866
sI1960
I18404
sI2025
I20873
sI1995
I22688
sI1965
I19028
sI2030
I20389
sI2000
I22448
sI1970
I20253
sI2035
I19870
sI2005
I22198
sI1975
I21246
sI2040
I19313
sI2010
I21960
sI1980
I22131
sI2045
I18712
sI1950
I16312
sI2015
I21667
ssS'Angola'
p209
(dp210
I1985
I8390
sI2050
I45889
sI1955
I4424
sI2020
I22485
sI1990
I9486
sI1960
I4798
sI2025
I25674
sI1995
I11000
sI1965
I5135
sI2030
I29155
sI2000
I12683
sI1970
I5606
sI2035
I32910
sI2005
I14770
sI1975
I6051
sI2040
I36948
sI2010
I17043
sI1980
I7206
sI2045
I41280
sI1950
I4118
sI2015
I19626
ssS'Chad'
p211
(dp212
I1985
I5067
sI2050
I20474
sI1955
I2806
sI2020
I12756
sI1990
I5842
sI1960
I3043
sI2025
I13915
sI1995
I6770
sI1965
I3345
sI2030
I15115
sI2000
I7943
sI1970
I3728
sI2035
I16362
sI2005
I9401
sI1975
I4145
sI2040
I17659
sI2010
I10544
sI1980
I4523
sI2045
I19007
sI1950
I2608
sI2015
I11632
ssS'South Africa'
p213
(dp214
I1985
I34255
sI2050
I68529
sI1955
I15369
sI2020
I56464
sI1990
I38504
sI1960
I17417
sI2025
I59109
sI1995
I42148
sI1965
I19899
sI2030
I61496
sI2000
I44914
sI1970
I22740
sI2035
I63603
sI2005
I48105
sI1975
I25816
sI2040
I65494
sI2010
I51123
sI1980
I29252
sI2045
I67163
sI1950
I13596
sI2015
I53676
ssS'Cyprus'
p215
(dp216
I1985
I680
sI2050
I1393
sI1955
I533
sI2020
I1267
sI1990
I746
sI1960
I579
sI2025
I1330
sI1995
I848
sI1965
I601
sI2030
I1375
sI2000
I920
sI1970
I628
sI2035
I1402
sI2005
I1011
sI1975
I627
sI2040
I1414
sI2010
I1103
sI1980
I631
sI2045
I1410
sI1950
I495
sI2015
I1190
ssS'Sweden'
p217
(dp218
I1985
I8357
sI2050
I12012
sI1955
I7263
sI2020
I10203
sI1990
I8601
sI1960
I7481
sI2025
I10588
sI1995
I8878
sI1965
I7734
sI2030
I10914
sI2000
I8925
sI1970
I8043
sI2035
I11190
sI2005
I9083
sI1975
I8193
sI2040
I11458
sI2010
I9433
sI1980
I8311
sI2045
I11734
sI1950
I7015
sI2015
I9802
ssS'Qatar'
p219
(dp220
I1985
I343
sI2050
I2559
sI1955
I36
sI2020
I2445
sI1990
I434
sI1960
I46
sI2025
I2563
sI1995
I510
sI1965
I71
sI2030
I2596
sI2000
I640
sI1970
I113
sI2035
I2575
sI2005
I973
sI1975
I165
sI2040
I2550
sI2010
I1720
sI1980
I230
sI2045
I2548
sI1950
I26
sI2015
I2195
ssS'Malaysia'
p221
(dp222
I1985
I15650
sI2050
I42929
sI1955
I7312
sI2020
I32653
sI1990
I17883
sI1960
I8429
sI2025
I34684
sI1995
I20340
sI1965
I9648
sI2030
I36619
sI2000
I23152
sI1970
I10911
sI2035
I38448
sI2005
I25969
sI1975
I12131
sI2040
I40124
sI2010
I28275
sI1980
I13461
sI2045
I41620
sI1950
I6434
sI2015
I30514
ssS'Austria'
p223
(dp224
I1985
I7560
sI2050
I9108
sI1955
I6947
sI2020
I8860
sI1990
I7723
sI1960
I7048
sI2025
I8988
sI1995
I8048
sI1965
I7271
sI2030
I9075
sI2000
I8114
sI1970
I7468
sI2035
I9121
sI2005
I8315
sI1975
I7579
sI2040
I9136
sI2010
I8448
sI1980
I7550
sI2045
I9129
sI1950
I6936
sI2015
I8666
ssS'Vietnam'
p225
(dp226
I1985
I60094
sI2050
I111174
sI1955
I27739
sI2020
I98722
sI1990
I67259
sI1960
I31657
sI2025
I102459
sI1995
I73784
sI1965
I37259
sI2030
I105478
sI2000
I79178
sI1970
I42577
sI2035
I107843
sI2005
I84425
sI1975
I48076
sI2040
I109602
sI2010
I89572
sI1980
I53716
sI2045
I110718
sI1950
I25349
sI2015
I94349
ssS'Mozambique'
p227
(dp228
I1985
I13294
sI2050
I58999
sI1955
I6782
sI2020
I28604
sI1990
I12990
sI1960
I7473
sI2025
I32307
sI1995
I15889
sI1965
I8302
sI2030
I36622
sI2000
I17997
sI1970
I9305
sI2035
I41434
sI2005
I20069
sI1975
I10433
sI2040
I46746
sI2010
I22418
sI1980
I12103
sI2045
I52586
sI1950
I6251
sI2015
I25304
ssS'Uganda'
p229
(dp230
I1985
I13811
sI2050
I93477
sI1955
I6318
sI2020
I43518
sI1990
I16549
sI1960
I7262
sI2025
I50693
sI1995
I19641
sI1965
I8390
sI2030
I58489
sI2000
I22917
sI1970
I9716
sI2035
I66782
sI2005
I26917
sI1975
I10761
sI2040
I75460
sI2010
I31508
sI1980
I12020
sI2045
I84402
sI1950
I5522
sI2015
I37102
ssS'Hungary'
p231
(dp232
I1985
I10649
sI2050
I8490
sI1955
I9826
sI2020
I9772
sI1990
I10372
sI1960
I9984
sI2025
I9616
sI1995
I10281
sI1965
I10153
sI2030
I9426
sI2000
I10148
sI1970
I10338
sI2035
I9212
sI2005
I10058
sI1975
I10532
sI2040
I8983
sI2010
I9993
sI1980
I10712
sI2045
I8743
sI1950
I9339
sI2015
I9898
ssS'Niger'
p233
(dp234
I1985
I6870
sI2050
I51540
sI1955
I3560
sI2020
I21771
sI1990
I7826
sI1960
I3913
sI2025
I25770
sI1995
I9111
sI1965
I4344
sI2030
I30283
sI2000
I10726
sI1970
I4841
sI2035
I35260
sI2005
I12783
sI1975
I5420
sI2040
I40539
sI2010
I15271
sI1980
I6094
sI2045
I46001
sI1950
I3272
sI2015
I18331
ssS'Isle of Man'
p235
(dp236
I1985
I65
sI2050
I93
sI1955
I52
sI2020
I91
sI1990
I69
sI1960
I48
sI2025
I93
sI1995
I73
sI1965
I49
sI2030
I94
sI2000
I76
sI1970
I53
sI2035
I95
sI2005
I80
sI1975
I60
sI2040
I95
sI2010
I84
sI1980
I65
sI2045
I94
sI1950
I55
sI2015
I88
ssS'Brazil'
p237
(dp238
I1985
I135734
sI2050
I238390
sI1955
I61652
sI2020
I210016
sI1990
I149410
sI1960
I71412
sI2025
I223028
sI1995
I161912
sI1965
I82602
sI2030
I228720
sI2000
I174316
sI1970
I94931
sI2035
I233068
sI2005
I186021
sI1975
I107328
sI2040
I236077
sI2010
I195835
sI1980
I121064
sI2045
I237826
sI1950
I53444
sI2015
I204260
ssS'Faroe Islands'
p239
(dp240
I1985
I46
sI2050
I58
sI1955
I33
sI2020
I52
sI1990
I48
sI1960
I35
sI2025
I54
sI1995
I44
sI1965
I38
sI2030
I55
sI2000
I46
sI1970
I39
sI2035
I56
sI2005
I49
sI1975
I41
sI2040
I57
sI2010
I50
sI1980
I44
sI2045
I57
sI1950
I32
sI2015
I51
ssS'The Bahamas'
p241
(dp242
I1985
I229
sI2050
I372
sI1955
I88
sI2020
I338
sI1990
I246
sI1960
I113
sI2025
I350
sI1995
I266
sI1965
I140
sI2030
I359
sI2000
I283
sI1970
I171
sI2035
I365
sI2005
I297
sI1975
I190
sI2040
I369
sI2010
I311
sI1980
I210
sI2045
I372
sI1950
I71
sI2015
I325
ssS'Panama'
p243
(dp244
I1985
I2168
sI2050
I4860
sI1955
I1011
sI2020
I3895
sI1990
I2394
sI1960
I1148
sI2025
I4118
sI1995
I2639
sI1965
I1326
sI2030
I4323
sI2000
I2900
sI1970
I1532
sI2035
I4503
sI2005
I3156
sI1975
I1750
sI2040
I4654
sI2010
I3411
sI1980
I1960
sI2045
I4773
sI1950
I893
sI2015
I3658
ssS'Costa Rica'
p245
(dp246
I1985
I2645
sI2050
I6066
sI1955
I1032
sI2020
I5098
sI1990
I3024
sI1960
I1249
sI2025
I5354
sI1995
I3445
sI1965
I1488
sI2030
I5572
sI2000
I3883
sI1970
I1736
sI2035
I5750
sI2005
I4209
sI1975
I1992
sI2040
I5892
sI2010
I4517
sI1980
I2300
sI2045
I5998
sI1950
I867
sI2015
I4815
ssS'Luxembourg'
p247
(dp248
I1985
I368
sI2050
I865
sI1955
I305
sI2020
I629
sI1990
I383
sI1960
I314
sI2025
I681
sI1995
I410
sI1965
I332
sI2030
I725
sI2000
I439
sI1970
I340
sI2035
I764
sI2005
I468
sI1975
I359
sI2040
I800
sI2010
I510
sI1980
I365
sI2045
I833
sI1950
I296
sI2015
I571
ssS'American Samoa'
p249
(dp250
I1985
I39
sI2050
I50
sI1955
I20
sI2020
I54
sI1990
I48
sI1960
I21
sI2025
I54
sI1995
I54
sI1965
I25
sI2030
I53
sI2000
I58
sI1970
I28
sI2035
I52
sI2005
I57
sI1975
I30
sI2040
I51
sI2010
I56
sI1980
I33
sI2045
I50
sI1950
I20
sI2015
I55
ssS'Andorra'
p251
(dp252
I1985
I45
sI2050
I75
sI1955
I7
sI2020
I86
sI1990
I53
sI1960
I9
sI2025
I86
sI1995
I64
sI1965
I14
sI2030
I85
sI2000
I66
sI1970
I20
sI2035
I83
sI2005
I77
sI1975
I27
sI2040
I82
sI2010
I85
sI1980
I34
sI2045
I79
sI1950
I7
sI2015
I86
ssS'Gibraltar'
p253
(dp254
I1985
I29
sI2050
I29
sI1955
I24
sI2020
I30
sI1990
I30
sI1960
I25
sI2025
I30
sI1995
I27
sI1965
I26
sI2030
I30
sI2000
I28
sI1970
I27
sI2035
I30
sI2005
I29
sI1975
I30
sI2040
I30
sI2010
I29
sI1980
I29
sI2045
I29
sI1950
I23
sI2015
I30
ssS'Ivory Coast'
p255
(dp256
I1985
I10332
sI2050
I37112
sI1955
I3165
sI2020
I25504
sI1990
I12491
sI1960
I3577
sI2025
I27652
sI1995
I14846
sI1965
I4357
sI2030
I29724
sI2000
I16885
sI1970
I5580
sI2035
I31712
sI2005
I18921
sI1975
I7031
sI2040
I33610
sI2010
I21059
sI1980
I8594
sI2045
I35412
sI1950
I2861
sI2015
I23296
ssS'Palau'
p257
(dp258
I1985
I14
sI2050
I23
sI1955
I9
sI2020
I22
sI1990
I16
sI1960
I10
sI2025
I23
sI1995
I18
sI1965
I11
sI2030
I23
sI2000
I20
sI1970
I13
sI2035
I23
sI2005
I21
sI1975
I13
sI2040
I23
sI2010
I21
sI1980
I14
sI2045
I24
sI1950
I8
sI2015
I22
ssS'Nigeria'
p259
(dp260
I1985
I84898
sI2050
I398222
sI1955
I35955
sI2020
I204910
sI1990
I96685
sI1960
I41551
sI2025
I230571
sI1995
I109753
sI1965
I48068
sI2030
I258614
sI2000
I123946
sI1970
I55591
sI2035
I288931
sI2005
I141190
sI1975
I64428
sI2040
I321287
sI2010
I160342
sI1980
I74829
sI2045
I359095
sI1950
I31797
sI2015
I181563
ssS'Ecuador'
p261
(dp262
I1985
I9062
sI2050
I21103
sI1955
I3843
sI2020
I16905
sI1990
I10319
sI1960
I4416
sI2025
I17868
sI1995
I11266
sI1965
I5118
sI2030
I18744
sI2000
I12446
sI1970
I5940
sI2035
I19514
sI2005
I13663
sI1975
I6872
sI2040
I20165
sI2010
I14791
sI1980
I7921
sI2045
I20695
sI1950
I3370
sI2015
I15869
ssS'Czech Republic'
p263
(dp264
I1985
I10311
sI2050
I10210
sI1955
I9366
sI2020
I10703
sI1990
I10310
sI1960
I9660
sI2025
I10697
sI1995
I10324
sI1965
I9777
sI2030
I10628
sI2000
I10269
sI1970
I9796
sI2035
I10529
sI2005
I10267
sI1975
I10043
sI2040
I10433
sI2010
I10551
sI1980
I10289
sI2045
I10332
sI1950
I8926
sI2015
I10645
ssS'Brunei'
p265
(dp266
I1985
I218
sI2050
I639
sI1955
I61
sI2020
I465
sI1990
I253
sI1960
I84
sI2025
I499
sI1995
I288
sI1965
I103
sI2030
I532
sI2000
I326
sI1970
I128
sI2035
I562
sI2005
I362
sI1975
I157
sI2040
I590
sI2010
I396
sI1980
I186
sI2045
I615
sI1950
I45
sI2015
I430
ssS'Belarus'
p267
(dp268
I1985
I9982
sI2050
I8340
sI1955
I7781
sI2020
I9478
sI1990
I10201
sI1960
I8168
sI2025
I9326
sI1995
I10205
sI1965
I8591
sI2030
I9145
sI2000
I10034
sI1970
I9028
sI2035
I8957
sI2005
I9807
sI1975
I9361
sI2040
I8768
sI2010
I9681
sI1980
I9644
sI2045
I8567
sI1950
I7723
sI2015
I9590
ssS'Iran'
p269
(dp270
I1985
I48619
sI2050
I100045
sI1955
I18739
sI2020
I86544
sI1990
I58101
sI1960
I21600
sI2025
I90482
sI1995
I64218
sI1965
I25040
sI2030
I93459
sI2000
I68632
sI1970
I28995
sI2035
I95773
sI2005
I72283
sI1975
I33468
sI2040
I97685
sI2010
I76924
sI1980
I39709
sI2045
I99181
sI1950
I16358
sI2015
I81825
ssS'Algeria'
p271
(dp272
I1985
I22009
sI2050
I55445
sI1955
I9842
sI2020
I42973
sI1990
I25191
sI1960
I10910
sI2025
I45842
sI1995
I28322
sI1965
I11964
sI2030
I48149
sI2000
I30639
sI1970
I13932
sI2035
I50118
sI2005
I32918
sI1975
I16141
sI2040
I52030
sI2010
I35950
sI1980
I18807
sI2045
I53894
sI1950
I8893
sI2015
I39543
ssS'El Salvador'
p273
(dp274
I1985
I4672
sI2050
I6182
sI1955
I2222
sI2020
I6218
sI1990
I5110
sI1960
I2582
sI2025
I6289
sI1995
I5480
sI1965
I3018
sI2030
I6341
sI2000
I5850
sI1970
I3604
sI2035
I6354
sI2005
I5957
sI1975
I4073
sI2040
I6324
sI2010
I6053
sI1980
I4571
sI2045
I6263
sI1950
I1940
sI2015
I6142
ssS'Tuvalu'
p275
(dp276
I1985
I9
sI2050
I14
sI1955
I5
sI2020
I12
sI1990
I10
sI1960
I6
sI2025
I12
sI1995
I10
sI1965
I6
sI2030
I13
sI2000
I11
sI1970
I6
sI2035
I13
sI2005
I11
sI1975
I7
sI2040
I13
sI2010
I11
sI1980
I8
sI2045
I14
sI1950
I5
sI2015
I11
ssS'Marshall Islands'
p277
(dp278
I1985
I39
sI2050
I104
sI1955
I13
sI2020
I78
sI1990
I46
sI1960
I16
sI2025
I84
sI1995
I50
sI1965
I18
sI2030
I89
sI2000
I54
sI1970
I22
sI2035
I93
sI2005
I60
sI1975
I27
sI2040
I98
sI2010
I66
sI1980
I31
sI2045
I101
sI1950
I11
sI2015
I73
ssS'Chile'
p279
(dp280
I1985
I11953
sI2050
I19689
sI1955
I6744
sI2020
I18187
sI1990
I13008
sI1960
I7586
sI2025
I18765
sI1995
I14173
sI1965
I8510
sI2030
I19204
sI2000
I15175
sI1970
I9369
sI2035
I19499
sI2005
I15980
sI1975
I10208
sI2040
I19669
sI2010
I16760
sI1980
I10999
sI2045
I19731
sI1950
I6091
sI2015
I17509
ssS'Puerto Rico'
p281
(dp282
I1985
I3383
sI2050
I2985
sI1955
I2251
sI2020
I3520
sI1990
I3537
sI1960
I2359
sI2025
I3477
sI1995
I3684
sI1965
I2597
sI2030
I3415
sI2000
I3811
sI1970
I2722
sI2035
I3330
sI2005
I3822
sI1975
I2936
sI2040
I3226
sI2010
I3722
sI1980
I3210
sI2045
I3109
sI1950
I2219
sI2015
I3599
ssS'Belgium'
p283
(dp284
I1985
I9859
sI2050
I12773
sI1955
I8869
sI2020
I11721
sI1990
I9970
sI1960
I9119
sI2025
I12038
sI1995
I10156
sI1965
I9449
sI2030
I12268
sI2000
I10264
sI1970
I9638
sI2035
I12439
sI2005
I10470
sI1975
I9795
sI2040
I12583
sI2010
I10866
sI1980
I9847
sI2045
I12695
sI1950
I8640
sI2015
I11324
ssS'Kiribati'
p285
(dp286
I1985
I63
sI2050
I140
sI1955
I37
sI2020
I112
sI1990
I72
sI1960
I41
sI2025
I118
sI1995
I77
sI1965
I45
sI2030
I124
sI2000
I86
sI1970
I49
sI2035
I129
sI2005
I93
sI1975
I54
sI2040
I133
sI2010
I100
sI1980
I58
sI2045
I137
sI1950
I34
sI2015
I106
ssS'Haiti'
p287
(dp288
I1985
I6120
sI2050
I13353
sI1955
I3365
sI2020
I10693
sI1990
I6798
sI1960
I3697
sI2025
I11253
sI1995
I7571
sI1965
I4094
sI2030
I11784
sI2000
I8413
sI1970
I4541
sI2035
I12267
sI2005
I9205
sI1975
I4974
sI2040
I12690
sI2010
I9649
sI1980
I5508
sI2045
I13049
sI1950
I3098
sI2015
I10111
ssS'Belize'
p289
(dp290
I1985
I166
sI2050
I544
sI1955
I77
sI2020
I380
sI1990
I191
sI1960
I92
sI2025
I412
sI1995
I218
sI1965
I107
sI2030
I441
sI2000
I249
sI1970
I123
sI2035
I470
sI2005
I282
sI1975
I136
sI2040
I496
sI2010
I315
sI1980
I145
sI2045
I521
sI1950
I66
sI2015
I348
ssS'Hong Kong'
p291
(dp292
I1985
I5457
sI2050
I6624
sI1955
I2491
sI2020
I7250
sI1990
I5688
sI1960
I3076
sI2025
I7297
sI1995
I6223
sI1965
I3598
sI2030
I7276
sI2000
I6656
sI1970
I3960
sI2035
I7185
sI2005
I6905
sI1975
I4396
sI2040
I7033
sI2010
I7030
sI1980
I5064
sI2045
I6841
sI1950
I2238
sI2015
I7142
ssS'Sierra Leone'
p293
(dp294
I1985
I3704
sI2050
I13594
sI1955
I2233
sI2020
I6625
sI1990
I4229
sI1960
I2397
sI2025
I7501
sI1995
I3882
sI1965
I2582
sI2030
I8501
sI2000
I3810
sI1970
I2790
sI2035
I9611
sI2005
I4709
sI1975
I3031
sI2040
I10831
sI2010
I5246
sI1980
I3336
sI2045
I12161
sI1950
I2088
sI2015
I5880
ssS'Denmark'
p295
(dp296
I1985
I5114
sI2050
I5576
sI1955
I4440
sI2020
I5643
sI1990
I5141
sI1960
I4582
sI2025
I5698
sI1995
I5233
sI1965
I4759
sI2030
I5731
sI2000
I5338
sI1970
I4929
sI2035
I5728
sI2005
I5433
sI1975
I5060
sI2040
I5691
sI2010
I5516
sI1980
I5124
sI2045
I5635
sI1950
I4272
sI2015
I5582
ssS'Philippines'
p297
(dp298
I1985
I54589
sI2050
I155381
sI1955
I24336
sI2020
I109181
sI1990
I61481
sI1960
I28026
sI2025
I117446
sI1995
I68472
sI1965
I32391
sI2030
I125685
sI2000
I76452
sI1970
I37253
sI2035
I133729
sI2005
I84965
sI1975
I42406
sI2040
I141428
sI2010
I93137
sI1980
I48290
sI2045
I148672
sI1950
I21132
sI2015
I100999
ssS'Moldova'
p299
(dp300
I1985
I4149
sI2050
I2262
sI1955
I2623
sI2020
I3365
sI1990
I4375
sI1960
I2999
sI2025
I3177
sI1995
I4356
sI1965
I3334
sI2030
I2985
sI2000
I4181
sI1970
I3595
sI2035
I2794
sI2005
I3949
sI1975
I3847
sI2040
I2609
sI2010
I3732
sI1980
I3997
sI2045
I2432
sI1950
I2337
sI2015
I3547
ssS'Morocco'
p301
(dp302
I1985
I21644
sI2050
I42027
sI1955
I10782
sI2020
I34956
sI1990
I24000
sI1960
I12424
sI2025
I36485
sI1995
I26148
sI1965
I14067
sI2030
I37887
sI2000
I28114
sI1970
I15910
sI2035
I39148
sI2005
I29901
sI1975
I17688
sI2040
I40267
sI2010
I31628
sI1980
I19488
sI2045
I41231
sI1950
I9344
sI2015
I33323
ssS'Croatia'
p303
(dp304
I1985
I4458
sI2050
I3865
sI1955
I3956
sI2020
I4428
sI1990
I4509
sI1960
I4037
sI2025
I4375
sI1995
I4497
sI1965
I4134
sI2030
I4301
sI2000
I4411
sI1970
I4206
sI2035
I4210
sI2005
I4496
sI1975
I4256
sI2040
I4104
sI2010
I4487
sI1980
I4384
sI2045
I3989
sI1950
I3838
sI2015
I4465
ssS'Mongolia'
p305
(dp306
I1985
I1860
sI2050
I3670
sI1955
I845
sI2020
I3169
sI1990
I2122
sI1960
I955
sI2025
I3302
sI1995
I2307
sI1965
I1091
sI2030
I3403
sI2000
I2461
sI1970
I1248
sI2035
I3490
sI2005
I2603
sI1975
I1446
sI2040
I3570
sI2010
I2784
sI1980
I1656
sI2045
I3633
sI1950
I779
sI2015
I2993
ssS'Guernsey'
p307
(dp308
I1985
I56
sI2050
I67
sI1955
I47
sI2020
I68
sI1990
I63
sI1960
I47
sI2025
I68
sI1995
I61
sI1965
I51
sI2030
I69
sI2000
I62
sI1970
I54
sI2035
I68
sI2005
I64
sI1975
I54
sI2040
I68
sI2010
I65
sI1980
I54
sI2045
I68
sI1950
I46
sI2015
I67
ssS'Thailand'
p309
(dp310
I1985
I51759
sI2050
I66064
sI1955
I23452
sI2020
I68978
sI1990
I56097
sI1960
I27513
sI2025
I69589
sI1995
I59818
sI1965
I32062
sI2030
I69751
sI2000
I62902
sI1970
I37091
sI2035
I69447
sI2005
I65113
sI1975
I42273
sI2040
I68696
sI2010
I66721
sI1980
I47026
sI2045
I67546
sI1950
I20042
sI2015
I67977
ssS'Switzerland'
p311
(dp312
I1985
I6568
sI2050
I9540
sI1955
I4981
sI2020
I8404
sI1990
I6844
sI1960
I5363
sI2025
I8666
sI1995
I7165
sI1965
I5944
sI2030
I8894
sI2000
I7278
sI1970
I6268
sI2035
I9085
sI2005
I7449
sI1975
I6404
sI2040
I9248
sI2010
I7770
sI1980
I6386
sI2045
I9398
sI1950
I4695
sI2015
I8122
ssS'Grenada'
p313
(dp314
I1985
I94
sI2050
I115
sI1955
I85
sI2020
I114
sI1990
I95
sI1960
I91
sI2025
I115
sI1995
I98
sI1965
I94
sI2030
I116
sI2000
I102
sI1970
I96
sI2035
I116
sI2005
I105
sI1975
I96
sI2040
I116
sI2010
I108
sI1980
I91
sI2045
I115
sI1950
I76
sI2015
I111
ssS'State of Palestine'
p315
(dp316
I1985
I1578
sI2050
I7770
sI1955
I1055
sI2020
I5181
sI1990
I1899
sI1960
I1115
sI2025
I5680
sI1995
I2508
sI1965
I1212
sI2030
I6153
sI2000
I3111
sI1970
I1033
sI2035
I6606
sI2005
I3599
sI1975
I1201
sI2040
I7034
sI2010
I4120
sI1980
I1361
sI2045
I7426
sI1950
I1018
sI2015
I4656
ssS'Iraq'
p317
(dp318
I1985
I15694
sI2050
I76520
sI1955
I5904
sI2020
I42213
sI1990
I18140
sI1960
I6823
sI2025
I47657
sI1995
I19658
sI1965
I7971
sI2030
I53387
sI2000
I23129
sI1970
I9414
sI2035
I59262
sI2005
I27538
sI1975
I11118
sI2040
I65148
sI2010
I30527
sI1980
I13233
sI2045
I70924
sI1950
I5164
sI2015
I37057
ssS'Portugal'
p319
(dp320
I1985
I9898
sI2050
I9934
sI1955
I8693
sI2020
I10843
sI1990
I9923
sI1960
I9037
sI2025
I10807
sI1995
I10066
sI1965
I9129
sI2030
I10732
sI2000
I10336
sI1970
I9045
sI2035
I10616
sI2005
I10567
sI1975
I9412
sI2040
I10448
sI2010
I10736
sI1980
I9778
sI2045
I10220
sI1950
I8443
sI2015
I10826
ssS'Estonia'
p321
(dp322
I1985
I1539
sI2050
I924
sI1955
I1155
sI2020
I1229
sI1990
I1570
sI1960
I1211
sI2025
I1183
sI1995
I1447
sI1965
I1288
sI2030
I1132
sI2000
I1380
sI1970
I1364
sI2035
I1080
sI2005
I1332
sI1975
I1433
sI2040
I1029
sI2010
I1303
sI1980
I1483
sI2045
I978
sI1950
I1096
sI2015
I1266
ssS'Kosovo'
p323
(dp324
I1985
I1683
sI2050
I2223
sI1955
I854
sI2020
I1933
sI1990
I1862
sI1960
I947
sI2025
I2000
sI1995
I2029
sI1965
I1079
sI2030
I2066
sI2000
I1701
sI1970
I1220
sI2035
I2123
sI2005
I1768
sI1975
I1370
sI2040
I2169
sI2010
I1816
sI1980
I1522
sI2045
I2203
sI1950
I762
sI2015
I1871
ssS'Cura\xc3\xa7ao'
p325
(dp326
I1985
I154
sI2050
I151
sI1955
I112
sI2020
I152
sI1990
I146
sI1960
I124
sI2025
I154
sI1995
I142
sI1965
I134
sI2030
I155
sI2000
I134
sI1970
I145
sI2035
I155
sI2005
I137
sI1975
I150
sI2040
I154
sI2010
I144
sI1980
I148
sI2045
I153
sI1950
I102
sI2015
I149
ssS'Saint Barth\xc3\xa9lemy'
p327
(dp328
I1985
I4
sI2050
I7
sI1955
I3
sI2020
I8
sI1990
I6
sI1960
I3
sI2025
I8
sI1995
I7
sI1965
I3
sI2030
I8
sI2000
I8
sI1970
I3
sI2035
I7
sI2005
I8
sI1975
I3
sI2040
I7
sI2010
I8
sI1980
I3
sI2045
I7
sI1950
I3
sI2015
I8
ssS'Mexico'
p329
(dp330
I1985
I76601
sI2050
I150568
sI1955
I32930
sI2020
I128650
sI1990
I84635
sI1960
I38579
sI2025
I134829
sI1995
I92584
sI1965
I45143
sI2030
I140063
sI2000
I99776
sI1970
I52776
sI2035
I144287
sI2005
I106577
sI1975
I60679
sI2040
I147495
sI2010
I114062
sI1980
I68348
sI2045
I149612
sI1950
I28486
sI2015
I121737
ssS'Lebanon'
p331
(dp332
I1985
I3177
sI2050
I5622
sI1955
I1561
sI2020
I5470
sI1990
I3452
sI1960
I1787
sI2025
I5397
sI1995
I3673
sI1965
I2058
sI2030
I5528
sI2000
I3835
sI1970
I2384
sI2035
I5624
sI2005
I4139
sI1975
I2693
sI2040
I5677
sI2010
I4493
sI1980
I2902
sI2045
I5674
sI1950
I1365
sI2015
I6185
ssS'Uzbekistan'
p333
(dp334
I1985
I18216
sI2050
I35117
sI1955
I7233
sI2020
I30566
sI1990
I20531
sI1960
I8532
sI2025
I31824
sI1995
I23068
sI1965
I10206
sI2030
I32855
sI2000
I25042
sI1970
I11941
sI2035
I33653
sI2005
I26540
sI1975
I13988
sI2040
I34279
sI2010
I27866
sI1980
I15994
sI2045
I34768
sI1950
I6293
sI2015
I29200
ssS'Tunisia'
p335
(dp336
I1985
I7364
sI2050
I12181
sI1955
I3847
sI2020
I11495
sI1990
I8208
sI1960
I4150
sI2025
I11850
sI1995
I8947
sI1965
I4566
sI2030
I12087
sI2000
I9508
sI1970
I5099
sI2035
I12223
sI2005
I10013
sI1975
I5704
sI2040
I12285
sI2010
I10526
sI1980
I6444
sI2045
I12277
sI1950
I3518
sI2015
I11038
ssS'Djibouti'
p337
(dp338
I1985
I383
sI2050
I1396
sI1955
I91
sI2020
I922
sI1990
I500
sI1960
I112
sI2025
I1017
sI1995
I554
sI1965
I143
sI2030
I1110
sI2000
I670
sI1970
I180
sI2035
I1195
sI2005
I667
sI1975
I227
sI2040
I1271
sI2010
I741
sI1980
I327
sI2045
I1338
sI1950
I80
sI2015
I829
ssS'Rwanda'
p339
(dp340
I1985
I5987
sI2050
I27507
sI1955
I2699
sI2020
I14328
sI1990
I7000
sI1960
I3032
sI2025
I16081
sI1995
I5473
sI1965
I3265
sI2030
I17984
sI2000
I8399
sI1970
I3770
sI2035
I20081
sI2005
I9612
sI1975
I4357
sI2040
I22379
sI2010
I11056
sI1980
I5140
sI2045
I24859
sI1950
I2440
sI2015
I12662
ssS'Antigua and Barbuda'
p341
(dp342
I1985
I65
sI2050
I123
sI1955
I52
sI2020
I99
sI1990
I65
sI1960
I55
sI2025
I104
sI1995
I69
sI1965
I60
sI2030
I110
sI2000
I76
sI1970
I66
sI2035
I114
sI2005
I82
sI1975
I69
sI2040
I118
sI2010
I87
sI1980
I69
sI2045
I121
sI1950
I46
sI2015
I93
ssS'Spain'
p343
(dp344
I1985
I38535
sI2050
I52491
sI1955
I29319
sI2020
I50016
sI1990
I39351
sI1960
I30642
sI2025
I51416
sI1995
I39765
sI1965
I32085
sI2030
I52446
sI2000
I40590
sI1970
I33877
sI2035
I53139
sI2005
I43705
sI1975
I35564
sI2040
I53451
sI2010
I46506
sI1980
I37489
sI2045
I53271
sI1950
I28063
sI2015
I48147
ssS'Colombia'
p345
(dp346
I1985
I29748
sI2050
I56228
sI1955
I13589
sI2020
I49085
sI1990
I33148
sI1960
I15953
sI2025
I51195
sI1995
I36532
sI1965
I18647
sI2030
I52965
sI2000
I38911
sI1970
I21430
sI2035
I54345
sI2005
I41488
sI1975
I24125
sI2040
I55335
sI2010
I44206
sI1980
I26632
sI2045
I55956
sI1950
I11592
sI2015
I46737
ssS'Burundi'
p347
(dp348
I1985
I4915
sI2050
I30392
sI1955
I2577
sI2020
I12632
sI1990
I5509
sI1960
I2816
sI2025
I14792
sI1995
I5800
sI1965
I3171
sI2030
I17246
sI2000
I6716
sI1970
I3522
sI2035
I20029
sI2005
I7789
sI1975
I3677
sI2040
I23154
sI2010
I9121
sI1980
I4298
sI2045
I26615
sI1950
I2363
sI2015
I10743
ssS'Taiwan'
p349
(dp350
I1985
I19338
sI2050
I20835
sI1955
I9486
sI2020
I23604
sI1990
I20279
sI1960
I11210
sI2025
I23643
sI1995
I21291
sI1965
I12978
sI2030
I23508
sI2000
I22185
sI1970
I14599
sI2035
I23149
sI2005
I22728
sI1975
I16123
sI2040
I22550
sI2010
I23127
sI1980
I17849
sI2045
I21759
sI1950
I7982
sI2015
I23416
ssS'Fiji'
p351
(dp352
I1985
I699
sI2050
I1014
sI1955
I333
sI2020
I936
sI1990
I740
sI1960
I394
sI2025
I957
sI1995
I773
sI1965
I464
sI2030
I973
sI2000
I805
sI1970
I522
sI2035
I986
sI2005
I837
sI1975
I577
sI2040
I999
sI2010
I876
sI1980
I635
sI2045
I1008
sI1950
I288
sI2015
I910
ssS'Barbados'
p353
(dp354
I1985
I258
sI2050
I283
sI1955
I228
sI2020
I295
sI1990
I263
sI1960
I233
sI2025
I298
sI1995
I268
sI1965
I235
sI2030
I298
sI2000
I274
sI1970
I239
sI2035
I297
sI2005
I281
sI1975
I248
sI2040
I294
sI2010
I286
sI1980
I252
sI2045
I289
sI1950
I211
sI2015
I291
ssS'Madagascar'
p355
(dp356
I1985
I10029
sI2050
I45808
sI1955
I5003
sI2020
I26956
sI1990
I11633
sI1960
I5482
sI2025
I30183
sI1995
I13533
sI1965
I6071
sI2030
I33418
sI2000
I15713
sI1970
I6766
sI2035
I36615
sI2005
I18132
sI1975
I7604
sI2040
I39759
sI2010
I20847
sI1980
I8692
sI2045
I42834
sI1950
I4621
sI2015
I23813
ssS'Italy'
p357
(dp358
I1985
I56719
sI2050
I61416
sI1955
I48634
sI2020
I62403
sI1990
I56714
sI1960
I50198
sI2025
I62592
sI1995
I57295
sI1965
I51988
sI2030
I62623
sI2000
I57785
sI1970
I53662
sI2035
I62531
sI2005
I59038
sI1975
I55572
sI2040
I62319
sI2010
I60749
sI1980
I56452
sI2045
I61957
sI1950
I47106
sI2015
I61856
ssS'Bhutan'
p359
(dp360
I1985
I530
sI2050
I952
sI1955
I187
sI2020
I783
sI1990
I615
sI1960
I213
sI2025
I821
sI1995
I567
sI1965
I255
sI2030
I855
sI2000
I606
sI1970
I310
sI2035
I886
sI2005
I655
sI1975
I373
sI2040
I912
sI2010
I700
sI1980
I447
sI2045
I935
sI1950
I164
sI2015
I742
ssS'Sudan'
p361
(dp362
I1985
I17507
sI2050
I59130
sI1955
I7391
sI2020
I39161
sI1990
I21130
sI1960
I8447
sI2025
I42734
sI1995
I24517
sI1965
I9653
sI2030
I46338
sI2000
I27068
sI1970
I11031
sI2035
I49857
sI2005
I29884
sI1975
I12708
sI2040
I53188
sI2010
I32997
sI1980
I14784
sI2045
I56279
sI1950
I6468
sI2015
I36109
ssS'Nepal'
p363
(dp364
I1985
I16570
sI2050
I45985
sI1955
I9480
sI2020
I34209
sI1990
I18919
sI1960
I10035
sI2025
I36623
sI1995
I21877
sI1965
I10863
sI2030
I38886
sI2000
I24819
sI1970
I11919
sI2035
I40940
sI2005
I27094
sI1975
I13156
sI2040
I42777
sI2010
I28952
sI1980
I14666
sI2045
I44447
sI1950
I8990
sI2015
I31552
ssS'Malta'
p365
(dp366
I1985
I348
sI2050
I396
sI1955
I315
sI2020
I420
sI1990
I360
sI1960
I329
sI2025
I422
sI1995
I377
sI1965
I320
sI2030
I420
sI2000
I390
sI1970
I326
sI2035
I416
sI2005
I399
sI1975
I328
sI2040
I410
sI2010
I407
sI1980
I365
sI2045
I403
sI1950
I312
sI2015
I414
ssS'Democratic Republic of the Congo'
p367
(dp368
I1985
I33348
sI2050
I144806
sI1955
I14953
sI2020
I89250
sI1990
I39152
sI1960
I16611
sI2025
I99163
sI1995
I46705
sI1965
I18856
sI2030
I108872
sI2000
I52446
sI1970
I21781
sI2035
I118299
sI2005
I60699
sI1975
I25033
sI2040
I127440
sI2010
I69852
sI1980
I29011
sI2045
I136285
sI1950
I13569
sI2015
I79376
ssS'Netherlands'
p369
(dp370
I1985
I14505
sI2050
I17907
sI1955
I10759
sI2020
I17281
sI1990
I14966
sI1960
I11494
sI2025
I17573
sI1995
I15477
sI1965
I12302
sI2030
I17797
sI2000
I15931
sI1970
I13043
sI2035
I17935
sI2005
I16300
sI1975
I13665
sI2040
I17982
sI2010
I16574
sI1980
I14156
sI2045
I17960
sI1950
I10121
sI2015
I16948
ssS'Suriname'
p371
(dp372
I1985
I395
sI2050
I718
sI1955
I241
sI2020
I610
sI1990
I417
sI1960
I285
sI2025
I637
sI1995
I428
sI1965
I337
sI2030
I662
sI2000
I465
sI1970
I373
sI2035
I683
sI2005
I504
sI1975
I363
sI2040
I700
sI2010
I546
sI1980
I355
sI2045
I712
sI1950
I209
sI2015
I580
ssS'Anguilla'
p373
(dp374
I1985
I7
sI2050
I27
sI1955
I6
sI2020
I19
sI1990
I9
sI1960
I6
sI2025
I20
sI1995
I10
sI1965
I6
sI2030
I22
sI2000
I12
sI1970
I7
sI2035
I23
sI2005
I14
sI1975
I7
sI2040
I25
sI2010
I15
sI1980
I7
sI2045
I26
sI1950
I6
sI2015
I17
ssS'Kuwait'
p375
(dp376
I1985
I1733
sI2050
I3864
sI1955
I187
sI2020
I2994
sI1990
I2132
sI1960
I293
sI2025
I3170
sI1995
I1665
sI1965
I477
sI2030
I3331
sI2000
I1973
sI1970
I748
sI2035
I3482
sI2005
I2257
sI1975
I1007
sI2040
I3624
sI2010
I2544
sI1980
I1370
sI2045
I3751
sI1950
I145
sI2015
I2789
ssS'Israel'
p377
(dp378
I1985
I4050
sI2050
I13863
sI1955
I1771
sI2020
I9176
sI1990
I4460
sI1960
I2139
sI2025
I9939
sI1995
I5335
sI1965
I2573
sI2030
I10712
sI2000
I6098
sI1970
I2895
sI2035
I11500
sI2005
I6726
sI1975
I3342
sI2040
I12303
sI2010
I7369
sI1980
I3721
sI2045
I13086
sI1950
I1287
sI2015
I8150
ssS'Indonesia'
p379
(dp380
I1985
I166070
sI2050
I327282
sI1955
I90255
sI2020
I271080
sI1990
I181600
sI1960
I100146
sI2025
I284429
sI1995
I197604
sI1965
I110754
sI2030
I296450
sI2000
I214091
sI1970
I122292
sI2035
I305653
sI2005
I229245
sI1975
I135214
sI2040
I314085
sI2010
I243423
sI1980
I150322
sI2045
I321524
sI1950
I82979
sI2015
I255994
ssS'Iceland'
p381
(dp382
I1985
I242
sI2050
I407
sI1955
I159
sI2020
I351
sI1990
I255
sI1960
I176
sI2025
I367
sI1995
I268
sI1965
I193
sI2030
I379
sI2000
I282
sI1970
I205
sI2035
I389
sI2005
I297
sI1975
I219
sI2040
I397
sI2010
I318
sI1980
I229
sI2045
I403
sI1950
I143
sI2015
I332
ssS'Venezuela'
p383
(dp384
I1985
I16998
sI2050
I40256
sI1955
I6171
sI2020
I31276
sI1990
I19326
sI1960
I7557
sI2025
I33189
sI1995
I21550
sI1965
I9068
sI2030
I34958
sI2000
I23493
sI1970
I10759
sI2035
I36544
sI2005
I25270
sI1975
I12675
sI2040
I37942
sI2010
I27224
sI1980
I14768
sI2045
I39174
sI1950
I5010
sI2015
I29276
ssS'Republic of Ireland'
p385
(dp386
I1985
I3541
sI2050
I6334
sI1955
I2917
sI2020
I5177
sI1990
I3509
sI1960
I2833
sI2025
I5418
sI1995
I3614
sI1965
I2877
sI2030
I5632
sI2000
I3823
sI1970
I2951
sI2035
I5833
sI2005
I4200
sI1975
I3178
sI2040
I6023
sI2010
I4623
sI1980
I3402
sI2045
I6195
sI1950
I2964
sI2015
I4893
ssS'Papua New Guinea'
p387
(dp388
I1985
I3229
sI2050
I10111
sI1955
I1546
sI2020
I7260
sI1990
I3683
sI1960
I1719
sI2025
I7824
sI1995
I4216
sI1965
I1941
sI2030
I8359
sI2000
I4813
sI1970
I2214
sI2035
I8859
sI2005
I5440
sI1975
I2505
sI2040
I9318
sI2010
I6065
sI1980
I2847
sI2045
I9733
sI1950
I1413
sI2015
I6673
ssS'Saint Kitts and Nevis'
p389
(dp390
I1985
I43
sI2050
I57
sI1955
I50
sI2020
I54
sI1990
I42
sI1960
I52
sI2025
I56
sI1995
I44
sI1965
I49
sI2030
I57
sI2000
I46
sI1970
I47
sI2035
I58
sI2005
I48
sI1975
I45
sI2040
I58
sI2010
I50
sI1980
I44
sI2045
I58
sI1950
I45
sI2015
I52
ssS'Trinidad and Tobago'
p391
(dp392
I1985
I1190
sI2050
I1024
sI1955
I721
sI2020
I1209
sI1990
I1256
sI1960
I842
sI2025
I1184
sI1995
I1265
sI1965
I940
sI2030
I1152
sI2000
I1252
sI1970
I956
sI2035
I1118
sI2005
I1237
sI1975
I1007
sI2040
I1086
sI2010
I1229
sI1980
I1091
sI2045
I1055
sI1950
I633
sI2015
I1223
ssS'Zimbabwe'
p393
(dp394
I1985
I8561
sI1955
I3410
sI1990
I10157
sI1960
I4011
sI1995
I11160
sI1965
I4686
sI2000
I11821
sI1970
I5515
sI2005
I11640
sI1975
I6342
sI2010
I11652
sI1980
I7170
sI1950
I2854
sI2015
I14230
ssS'Germany'
p395
(dp396
I1985
I77685
sI2050
I71542
sI1955
I70196
sI2020
I80160
sI1990
I79381
sI1960
I72481
sI2025
I79227
sI1995
I81654
sI1965
I75639
sI2030
I78022
sI2000
I82184
sI1970
I77784
sI2035
I76590
sI2005
I82440
sI1975
I78683
sI2040
I74984
sI2010
I81645
sI1980
I78298
sI2045
I73277
sI1950
I68375
sI2015
I80855
ssS'Georgia (country)'
p397
(dp398
I1985
I5193
sI2050
I4715
sI1955
I3828
sI2020
I4931
sI1990
I5432
sI1960
I4147
sI2025
I4930
sI1995
I5042
sI1965
I4465
sI2030
I4905
sI2000
I4819
sI1970
I4695
sI2035
I4869
sI2005
I4791
sI1975
I4898
sI2040
I4829
sI2010
I4903
sI1980
I5046
sI2045
I4781
sI1950
I3516
sI2015
I4932
ssS'Senegal'
p399
(dp400
I1985
I6379
sI2050
I27245
sI1955
I2927
sI2020
I15737
sI1990
I7348
sI1960
I3270
sI2025
I17581
sI1995
I8379
sI1965
I3744
sI2030
I19486
sI2000
I9470
sI1970
I4318
sI2035
I21430
sI2005
I10805
sI1975
I4990
sI2040
I23390
sI2010
I12324
sI1980
I5612
sI2045
I25337
sI1950
I2654
sI2015
I13976
ssS'Kazakhstan'
p401
(dp402
I1985
I15999
sI2050
I22238
sI1955
I7977
sI2020
I19092
sI1990
I16776
sI1960
I9983
sI2025
I19810
sI1995
I16390
sI1965
I11903
sI2030
I20379
sI2000
I15688
sI1970
I13107
sI2035
I20887
sI2005
I16123
sI1975
I14158
sI2040
I21401
sI2010
I17085
sI1980
I15000
sI2045
I21878
sI1950
I6694
sI2015
I18158
ssS'Poland'
p403
(dp404
I1985
I37226
sI2050
I32739
sI1955
I27221
sI2020
I38283
sI1990
I38120
sI1960
I29590
sI2025
I37754
sI1995
I38601
sI1965
I31263
sI2030
I36985
sI2000
I38655
sI1970
I32527
sI2035
I36052
sI2005
I38557
sI1975
I33970
sI2040
I35028
sI2010
I38617
sI1980
I35579
sI2045
I33926
sI1950
I24825
sI2015
I38563
ssS'Eritrea'
p405
(dp406
I1985
I2942
sI2050
I11382
sI1955
I1499
sI2020
I7260
sI1990
I3138
sI1960
I1615
sI2025
I7988
sI1995
I3566
sI1965
I1747
sI2030
I8710
sI2000
I4198
sI1970
I2161
sI2035
I9421
sI2005
I5070
sI1975
I2422
sI2040
I10109
sI2010
I5793
sI1980
I2569
sI2045
I10765
sI1950
I1403
sI2015
I6528
ssS'Kyrgyzstan'
p407
(dp408
I1985
I4062
sI2050
I7064
sI1955
I1902
sI2020
I5965
sI1990
I4484
sI1960
I2172
sI2025
I6219
sI1995
I4621
sI1965
I2574
sI2030
I6432
sI2000
I4938
sI1970
I2964
sI2035
I6624
sI2005
I5165
sI1975
I3301
sI2040
I6803
sI2010
I5411
sI1980
I3632
sI2045
I6956
sI1950
I1739
sI2015
I5665
ssS'Montserrat'
p409
(dp410
I1985
I12
sI2050
I6
sI1955
I13
sI2020
I6
sI1990
I11
sI1960
I13
sI2025
I6
sI1995
I11
sI1965
I12
sI2030
I6
sI2000
I4
sI1970
I12
sI2035
I6
sI2005
I5
sI1975
I13
sI2040
I6
sI2010
I6
sI1980
I12
sI2045
I6
sI1950
I14
sI2015
I6
ssS'New Caledonia'
p411
(dp412
I1985
I153
sI2050
I371
sI1955
I65
sI2020
I291
sI1990
I169
sI1960
I79
sI2025
I308
sI1995
I192
sI1965
I91
sI2030
I324
sI2000
I212
sI1970
I113
sI2035
I338
sI2005
I233
sI1975
I134
sI2040
I351
sI2010
I253
sI1980
I140
sI2045
I362
sI1950
I56
sI2015
I272
ssS'North Korea'
p413
(dp414
I1985
I18831
sI2050
I26970
sI1955
I8864
sI2020
I25644
sI1990
I20452
sI1960
I10448
sI2025
I26243
sI1995
I22108
sI1965
I11965
sI2030
I26689
sI2000
I22785
sI1970
I14062
sI2035
I26956
sI2005
I23621
sI1975
I16015
sI2040
I27074
sI2010
I24326
sI1980
I17391
sI2045
I27074
sI1950
I9472
sI2015
I24984
ssS'Sri Lanka'
p415
(dp416
I1985
I15848
sI2050
I25167
sI1955
I8694
sI2020
I22890
sI1990
I16862
sI1960
I9914
sI2025
I23564
sI1995
I17942
sI1965
I11261
sI2030
I24120
sI2000
I19042
sI1970
I12619
sI2035
I24584
sI2005
I20103
sI1975
I13780
sI2040
I24935
sI2010
I21084
sI1980
I15056
sI2045
I25133
sI1950
I7534
sI2015
I22054
ssS'Latvia'
p417
(dp418
I1985
I2607
sI2050
I1250
sI1955
I2003
sI2020
I1882
sI1990
I2664
sI1960
I2116
sI2025
I1773
sI1995
I2481
sI1965
I2254
sI2030
I1662
sI2000
I2369
sI1970
I2362
sI2035
I1553
sI2005
I2259
sI1975
I2462
sI2040
I1450
sI2010
I2116
sI1980
I2525
sI2045
I1349
sI1950
I1937
sI2015
I1987
ssS'South Sudan'
p419
(dp420
I1985
I5320
sI2050
I26844
sI1955
I2757
sI2020
I14559
sI1990
I4960
sI1960
I2809
sI2025
I16616
sI1995
I5193
sI1965
I2862
sI2030
I18682
sI2000
I6297
sI1970
I2915
sI2035
I20784
sI2005
I7634
sI1975
I3396
sI2040
I22866
sI2010
I9585
sI1980
I4668
sI2045
I24892
sI1950
I2707
sI2015
I12043
ssS'Guyana'
p421
(dp422
I1985
I763
sI2050
I879
sI1955
I492
sI2020
I751
sI1990
I772
sI1960
I572
sI2025
I782
sI1995
I769
sI1965
I641
sI2030
I813
sI2000
I785
sI1970
I715
sI2035
I840
sI2005
I775
sI1975
I768
sI2040
I859
sI2010
I746
sI1980
I760
sI2045
I871
sI1950
I428
sI2015
I736
ssS'Syria'
p423
(dp424
I1985
I10479
sI2050
I31226
sI1955
I3938
sI2020
I22347
sI1990
I12534
sI1960
I4531
sI2025
I24538
sI1995
I14487
sI1965
I5323
sI2030
I26090
sI2000
I16515
sI1970
I6253
sI2035
I27563
sI2005
I18615
sI1975
I7398
sI2040
I28938
sI2010
I21766
sI1980
I8740
sI2045
I30173
sI1950
I3496
sI2015
I17065
ssS'Sint Maarten'
p425
(dp426
I1985
I20
sI2050
I54
sI1955
I3
sI2020
I44
sI1990
I30
sI1960
I3
sI2025
I47
sI1995
I32
sI1965
I5
sI2030
I49
sI2000
I31
sI1970
I7
sI2035
I51
sI2005
I34
sI1975
I11
sI2040
I52
sI2010
I38
sI1980
I13
sI2045
I53
sI1950
I3
sI2015
I41
ssS'Vanuatu'
p427
(dp428
I1985
I135
sI2050
I433
sI1955
I59
sI2020
I299
sI1990
I154
sI1960
I67
sI2025
I324
sI1995
I173
sI1965
I75
sI2030
I348
sI2000
I192
sI1970
I86
sI2035
I372
sI2005
I218
sI1975
I100
sI2040
I394
sI2010
I246
sI1980
I117
sI2045
I415
sI1950
I53
sI2015
I273
ssS'Honduras'
p429
(dp430
I1985
I4078
sI2050
I12949
sI1955
I1663
sI2020
I9466
sI1990
I4795
sI1960
I1952
sI2025
I10144
sI1995
I5551
sI1965
I2330
sI2030
I10786
sI2000
I6360
sI1970
I2761
sI2035
I11389
sI2005
I7194
sI1975
I2858
sI2040
I11951
sI2010
I7990
sI1980
I3403
sI2045
I12469
sI1950
I1432
sI2015
I8747
ssS'Myanmar'
p431
(dp432
I1985
I36766
sI2050
I70674
sI1955
I21050
sI2020
I59126
sI1990
I40464
sI1960
I22840
sI2025
I61748
sI1995
I43994
sI1965
I24938
sI2030
I64103
sI2000
I47439
sI1970
I27393
sI2035
I66155
sI2005
I50573
sI1975
I30330
sI2040
I67928
sI2010
I53415
sI1980
I33337
sI2045
I69445
sI1950
I19488
sI2015
I56321
ssS'Equatorial Guinea'
p433
(dp434
I1985
I326
sI2050
I1429
sI1955
I226
sI2020
I837
sI1990
I372
sI1960
I244
sI2025
I936
sI1995
I427
sI1965
I253
sI2030
I1037
sI2000
I492
sI1970
I271
sI2035
I1139
sI2005
I568
sI1975
I214
sI2040
I1238
sI2010
I651
sI1980
I257
sI2045
I1335
sI1950
I212
sI2015
I741
ssS'Egypt'
p435
(dp436
I1985
I50053
sI2050
I137873
sI1955
I23856
sI2020
I96261
sI1990
I54908
sI1960
I26847
sI2025
I103743
sI1995
I58946
sI1965
I30266
sI2030
I111058
sI2000
I65159
sI1970
I33575
sI2035
I118256
sI2005
I72544
sI1975
I36953
sI2040
I125242
sI2010
I80472
sI1980
I42635
sI2045
I131823
sI1950
I21198
sI2015
I88488
ssS'Republic of Macedonia'
p437
(dp438
I1985
I1845
sI2050
I1991
sI1955
I1341
sI2020
I2113
sI1990
I1862
sI1960
I1367
sI2025
I2120
sI1995
I1955
sI1965
I1470
sI2030
I2114
sI2000
I2015
sI1970
I1575
sI2035
I2097
sI2005
I2046
sI1975
I1685
sI2040
I2069
sI2010
I2073
sI1980
I1793
sI2045
I2034
sI1950
I1225
sI2015
I2097
ssS'Singapore'
p439
(dp440
I1985
I2750
sI2050
I8610
sI1955
I1306
sI2020
I6210
sI1990
I3048
sI1960
I1647
sI2025
I6733
sI1995
I3567
sI1965
I1887
sI2030
I7223
sI2000
I4064
sI1970
I2075
sI2035
I7661
sI2005
I4606
sI1975
I2263
sI2040
I8036
sI2010
I5141
sI1980
I2414
sI2045
I8351
sI1950
I1023
sI2015
I5675
ssS'Serbia'
p441
(dp442
I1985
I7720
sI2050
I5870
sI1955
I6314
sI2020
I7013
sI1990
I7787
sI1960
I6659
sI2025
I6846
sI1995
I7692
sI1965
I6959
sI2030
I6673
sI2000
I7605
sI1970
I7249
sI2035
I6487
sI2005
I7503
sI1975
I7432
sI2040
I6288
sI2010
I7345
sI1980
I7588
sI2045
I6080
sI1950
I5957
sI2015
I7177
ssS'Botswana'
p443
(dp444
I1985
I1080
sI2050
I2872
sI1955
I462
sI2020
I2313
sI1990
I1265
sI1960
I497
sI2025
I2426
sI1995
I1478
sI1965
I539
sI2030
I2520
sI2000
I1680
sI1970
I584
sI2035
I2606
sI2005
I1841
sI1975
I705
sI2040
I2691
sI2010
I2030
sI1980
I901
sI2045
I2780
sI1950
I431
sI2015
I2183
ssS'United Kingdom'
p445
(dp446
I1985
I56585
sI2050
I71154
sI1955
I50947
sI2020
I65762
sI1990
I57411
sI1960
I52373
sI2025
I67244
sI1995
I58187
sI1965
I54351
sI2030
I68451
sI2000
I59140
sI1970
I55633
sI2035
I69394
sI2005
I60488
sI1975
I56216
sI2040
I70149
sI2010
I62349
sI1980
I56315
sI2045
I70743
sI1950
I50128
sI2015
I64089
ssS'Greece'
p447
(dp448
I1985
I9924
sI2050
I10036
sI1955
I7966
sI2020
I10743
sI1990
I10130
sI1960
I8328
sI2025
I10671
sI1995
I10458
sI1965
I8551
sI2030
I10584
sI2000
I10560
sI1970
I8793
sI2035
I10485
sI2005
I10669
sI1975
I9047
sI2040
I10367
sI2010
I10750
sI1980
I9643
sI2045
I10218
sI1950
I7567
sI2015
I10776
ssS'Paraguay'
p449
(dp450
I1985
I3634
sI2050
I8841
sI1955
I1684
sI2020
I7192
sI1990
I4201
sI1960
I1910
sI2025
I7603
sI1995
I4826
sI1965
I2171
sI2030
I7975
sI2000
I5419
sI1970
I2477
sI2035
I8280
sI2005
I5926
sI1975
I2849
sI2040
I8517
sI2010
I6376
sI1980
I3172
sI2045
I8700
sI1950
I1476
sI2015
I6784
ssS'Namibia'
p451
(dp452
I1985
I1205
sI2050
I2150
sI1955
I522
sI2020
I2263
sI1990
I1471
sI1960
I591
sI2025
I2284
sI1995
I1682
sI1965
I671
sI2030
I2281
sI2000
I1894
sI1970
I765
sI2035
I2258
sI2005
I2029
sI1975
I916
sI2040
I2223
sI2010
I2129
sI1980
I1059
sI2045
I2185
sI1950
I464
sI2015
I2213
ssS'Comoros'
p453
(dp454
I1985
I383
sI2050
I1170
sI1955
I164
sI2020
I847
sI1990
I431
sI1960
I183
sI2025
I906
sI1995
I483
sI1965
I207
sI2030
I964
sI2000
I546
sI1970
I237
sI2035
I1022
sI2005
I624
sI1975
I276
sI2040
I1079
sI2010
I707
sI1980
I340
sI2045
I1128
sI1950
I149
sI2015
I781
ss.